(dp1
S'output'
p2
S''
sS'layer'
p3
S'Framework'
p4
sS'code'
p5
S''
sS'snapshot'
p6
(dp7
S'exception'
p8
(dp9
S'__hash__'
p10
S"<method-wrapper '__hash__' of exceptions.SystemError object>"
p11
sS'__setattr__'
p12
S"<method-wrapper '__setattr__' of exceptions.SystemError object>"
p13
sS'__reduce_ex__'
p14
S'<built-in method __reduce_ex__ of exceptions.SystemError object>'
p15
sS'__getslice__'
p16
S"<method-wrapper '__getslice__' of exceptions.SystemError object>"
p17
sS'__getitem__'
p18
S"<method-wrapper '__getitem__' of exceptions.SystemError object>"
p19
sS'__setstate__'
p20
S'<built-in method __setstate__ of exceptions.SystemError object>'
p21
sS'__reduce__'
p22
S'<built-in method __reduce__ of exceptions.SystemError object>'
p23
sS'__str__'
p24
S"<method-wrapper '__str__' of exceptions.SystemError object>"
p25
sS'__format__'
p26
S'<built-in method __format__ of exceptions.SystemError object>'
p27
sS'__getattribute__'
p28
S"<method-wrapper '__getattribute__' of exceptions.SystemError object>"
p29
sS'__class__'
p30
S"<type 'exceptions.SystemError'>"
p31
sS'__unicode__'
p32
S'<built-in method __unicode__ of exceptions.SystemError object>'
p33
sS'__delattr__'
p34
S"<method-wrapper '__delattr__' of exceptions.SystemError object>"
p35
sS'__subclasshook__'
p36
S'<built-in method __subclasshook__ of type object>'
p37
sS'__repr__'
p38
S"<method-wrapper '__repr__' of exceptions.SystemError object>"
p39
sS'args'
p40
S"('compiled code is incompatible',)"
p41
sS'__dict__'
p42
S'{}'
p43
sS'__sizeof__'
p44
S'<built-in method __sizeof__ of exceptions.SystemError object>'
p45
sS'__doc__'
p46
S"'Internal error in the Python interpreter.\\n\\nPleas...ersion, and the hardware/OS platform and version.'"
p47
sS'__init__'
p48
S"<method-wrapper '__init__' of exceptions.SystemError object>"
p49
sS'__new__'
p50
S'<built-in method __new__ of type object>'
p51
ssS'evalue'
p52
S'compiled code is incompatible'
p53
sS'request'
p54
ccopy_reg
_reconstructor
p55
(cgluon.html
BEAUTIFY
p56
c__builtin__
object
p57
NtRp58
(dp59
S'attributes'
p60
(dp61
sS'components'
p62
(lp63
g55
(cgluon.html
TABLE
p64
g57
NtRp65
(dp66
g60
(dp67
S'level'
p68
I5
ssS'parent'
p69
Nsg62
(lp70
g55
(cgluon.html
TR
p71
g57
NtRp72
(dp73
g60
(dp74
sg69
g65
sg62
(lp75
g55
(cgluon.html
TD
p76
g57
NtRp77
(dp78
g60
(dp79
S'_style'
p80
S'font-weight:bold;'
p81
ssg69
g72
sg62
(lp82
S'ajax'
p83
asbag55
(g76
g57
NtRp84
(dp85
g60
(dp86
S'_valign'
p87
S'top'
p88
ssg69
g72
sg62
(lp89
S':'
asbag55
(g76
g57
NtRp90
(dp91
g60
(dp92
sg69
g72
sg62
(lp93
g55
(g56
g57
NtRp94
(dp95
g60
(dp96
g68
I5
ssg69
g90
sg62
(lp97
S'False'
p98
asbasbasbag55
(g71
g57
NtRp99
(dp100
g60
(dp101
sg69
g65
sg62
(lp102
g55
(g76
g57
NtRp103
(dp104
g60
(dp105
g80
g81
ssg69
g99
sg62
(lp106
S'application'
p107
asbag55
(g76
g57
NtRp108
(dp109
g60
(dp110
g87
g88
ssg69
g99
sg62
(lp111
S':'
asbag55
(g76
g57
NtRp112
(dp113
g60
(dp114
sg69
g99
sg62
(lp115
g55
(g56
g57
NtRp116
(dp117
g60
(dp118
g68
I5
ssg69
g112
sg62
(lp119
S'ge_finder'
p120
asbasbasbag55
(g71
g57
NtRp121
(dp122
g60
(dp123
sg69
g65
sg62
(lp124
g55
(g76
g57
NtRp125
(dp126
g60
(dp127
g80
g81
ssg69
g121
sg62
(lp128
g40
asbag55
(g76
g57
NtRp129
(dp130
g60
(dp131
g87
g88
ssg69
g121
sg62
(lp132
S':'
asbag55
(g76
g57
NtRp133
(dp134
g60
(dp135
sg69
g121
sg62
(lp136
g55
(g56
g57
NtRp137
(dp138
g60
(dp139
g68
I5
ssg69
g133
sg62
(lp140
g55
(g64
g57
NtRp141
(dp142
g60
(dp143
g68
I4
ssg69
Nsg62
(lp144
sbasbasbasbag55
(g71
g57
NtRp145
(dp146
g60
(dp147
sg69
g65
sg62
(lp148
g55
(g76
g57
NtRp149
(dp150
g60
(dp151
g80
g81
ssg69
g145
sg62
(lp152
S'body'
p153
asbag55
(g76
g57
NtRp154
(dp155
g60
(dp156
g87
g88
ssg69
g145
sg62
(lp157
S':'
asbag55
(g76
g57
NtRp158
(dp159
g60
(dp160
sg69
g145
sg62
(lp161
g55
(g56
g57
NtRp162
(dp163
g60
(dp164
g68
I5
ssg69
g158
sg62
(lp165
S'<cStringIO.StringO object at 0xa5d37e0>'
p166
asbasbasbag55
(g71
g57
NtRp167
(dp168
g60
(dp169
sg69
g65
sg62
(lp170
g55
(g76
g57
NtRp171
(dp172
g60
(dp173
g80
g81
ssg69
g167
sg62
(lp174
S'client'
p175
asbag55
(g76
g57
NtRp176
(dp177
g60
(dp178
g87
g88
ssg69
g167
sg62
(lp179
S':'
asbag55
(g76
g57
NtRp180
(dp181
g60
(dp182
sg69
g167
sg62
(lp183
g55
(g56
g57
NtRp184
(dp185
g60
(dp186
g68
I5
ssg69
g180
sg62
(lp187
S'127.0.0.1'
p188
asbasbasbag55
(g71
g57
NtRp189
(dp190
g60
(dp191
sg69
g65
sg62
(lp192
g55
(g76
g57
NtRp193
(dp194
g60
(dp195
g80
g81
ssg69
g189
sg62
(lp196
S'controller'
p197
asbag55
(g76
g57
NtRp198
(dp199
g60
(dp200
g87
g88
ssg69
g189
sg62
(lp201
S':'
asbag55
(g76
g57
NtRp202
(dp203
g60
(dp204
sg69
g189
sg62
(lp205
g55
(g56
g57
NtRp206
(dp207
g60
(dp208
g68
I5
ssg69
g202
sg62
(lp209
S'default'
p210
asbasbasbag55
(g71
g57
NtRp211
(dp212
g60
(dp213
sg69
g65
sg62
(lp214
g55
(g76
g57
NtRp215
(dp216
g60
(dp217
g80
g81
ssg69
g211
sg62
(lp218
S'cookies'
p219
asbag55
(g76
g57
NtRp220
(dp221
g60
(dp222
g87
g88
ssg69
g211
sg62
(lp223
S':'
asbag55
(g76
g57
NtRp224
(dp225
g60
(dp226
sg69
g211
sg62
(lp227
g55
(g56
g57
NtRp228
(dp229
g60
(dp230
g68
I5
ssg69
g224
sg62
(lp231
g55
(g64
g57
NtRp232
(dp233
g60
(dp234
g68
I4
ssg69
Nsg62
(lp235
g55
(g71
g57
NtRp236
(dp237
g60
(dp238
sg69
g232
sg62
(lp239
g55
(g76
g57
NtRp240
(dp241
g60
(dp242
g80
g81
ssg69
g236
sg62
(lp243
S'session_id_admin'
p244
asbag55
(g76
g57
NtRp245
(dp246
g60
(dp247
g87
g88
ssg69
g236
sg62
(lp248
S':'
asbag55
(g76
g57
NtRp249
(dp250
g60
(dp251
sg69
g236
sg62
(lp252
g55
(g56
g57
NtRp253
(dp254
g60
(dp255
g68
I4
ssg69
g249
sg62
(lp256
g55
(g64
g57
NtRp257
(dp258
g60
(dp259
g68
I3
ssg69
Nsg62
(lp260
g55
(g71
g57
NtRp261
(dp262
g60
(dp263
sg69
g257
sg62
(lp264
g55
(g76
g57
NtRp265
(dp266
g60
(dp267
g80
g81
ssg69
g261
sg62
(lp268
S'comment'
p269
asbag55
(g76
g57
NtRp270
(dp271
g60
(dp272
g87
g88
ssg69
g261
sg62
(lp273
S':'
asbag55
(g76
g57
NtRp274
(dp275
g60
(dp276
sg69
g261
sg62
(lp277
g55
(g56
g57
NtRp278
(dp279
g60
(dp280
g68
I3
ssg69
g274
sg62
(lp281
S''
asbasbasbag55
(g71
g57
NtRp282
(dp283
g60
(dp284
sg69
g257
sg62
(lp285
g55
(g76
g57
NtRp286
(dp287
g60
(dp288
g80
g81
ssg69
g282
sg62
(lp289
S'domain'
p290
asbag55
(g76
g57
NtRp291
(dp292
g60
(dp293
g87
g88
ssg69
g282
sg62
(lp294
S':'
asbag55
(g76
g57
NtRp295
(dp296
g60
(dp297
sg69
g282
sg62
(lp298
g55
(g56
g57
NtRp299
(dp300
g60
(dp301
g68
I3
ssg69
g295
sg62
(lp302
S''
asbasbasbag55
(g71
g57
NtRp303
(dp304
g60
(dp305
sg69
g257
sg62
(lp306
g55
(g76
g57
NtRp307
(dp308
g60
(dp309
g80
g81
ssg69
g303
sg62
(lp310
S'expires'
p311
asbag55
(g76
g57
NtRp312
(dp313
g60
(dp314
g87
g88
ssg69
g303
sg62
(lp315
S':'
asbag55
(g76
g57
NtRp316
(dp317
g60
(dp318
sg69
g303
sg62
(lp319
g55
(g56
g57
NtRp320
(dp321
g60
(dp322
g68
I3
ssg69
g316
sg62
(lp323
S''
asbasbasbag55
(g71
g57
NtRp324
(dp325
g60
(dp326
sg69
g257
sg62
(lp327
g55
(g76
g57
NtRp328
(dp329
g60
(dp330
g80
g81
ssg69
g324
sg62
(lp331
S'httponly'
p332
asbag55
(g76
g57
NtRp333
(dp334
g60
(dp335
g87
g88
ssg69
g324
sg62
(lp336
S':'
asbag55
(g76
g57
NtRp337
(dp338
g60
(dp339
sg69
g324
sg62
(lp340
g55
(g56
g57
NtRp341
(dp342
g60
(dp343
g68
I3
ssg69
g337
sg62
(lp344
S''
asbasbasbag55
(g71
g57
NtRp345
(dp346
g60
(dp347
sg69
g257
sg62
(lp348
g55
(g76
g57
NtRp349
(dp350
g60
(dp351
g80
g81
ssg69
g345
sg62
(lp352
S'max-age'
p353
asbag55
(g76
g57
NtRp354
(dp355
g60
(dp356
g87
g88
ssg69
g345
sg62
(lp357
S':'
asbag55
(g76
g57
NtRp358
(dp359
g60
(dp360
sg69
g345
sg62
(lp361
g55
(g56
g57
NtRp362
(dp363
g60
(dp364
g68
I3
ssg69
g358
sg62
(lp365
S''
asbasbasbag55
(g71
g57
NtRp366
(dp367
g60
(dp368
sg69
g257
sg62
(lp369
g55
(g76
g57
NtRp370
(dp371
g60
(dp372
g80
g81
ssg69
g366
sg62
(lp373
S'path'
p374
asbag55
(g76
g57
NtRp375
(dp376
g60
(dp377
g87
g88
ssg69
g366
sg62
(lp378
S':'
asbag55
(g76
g57
NtRp379
(dp380
g60
(dp381
sg69
g366
sg62
(lp382
g55
(g56
g57
NtRp383
(dp384
g60
(dp385
g68
I3
ssg69
g379
sg62
(lp386
S''
asbasbasbag55
(g71
g57
NtRp387
(dp388
g60
(dp389
sg69
g257
sg62
(lp390
g55
(g76
g57
NtRp391
(dp392
g60
(dp393
g80
g81
ssg69
g387
sg62
(lp394
S'secure'
p395
asbag55
(g76
g57
NtRp396
(dp397
g60
(dp398
g87
g88
ssg69
g387
sg62
(lp399
S':'
asbag55
(g76
g57
NtRp400
(dp401
g60
(dp402
sg69
g387
sg62
(lp403
g55
(g56
g57
NtRp404
(dp405
g60
(dp406
g68
I3
ssg69
g400
sg62
(lp407
S''
asbasbasbag55
(g71
g57
NtRp408
(dp409
g60
(dp410
sg69
g257
sg62
(lp411
g55
(g76
g57
NtRp412
(dp413
g60
(dp414
g80
g81
ssg69
g408
sg62
(lp415
S'version'
p416
asbag55
(g76
g57
NtRp417
(dp418
g60
(dp419
g87
g88
ssg69
g408
sg62
(lp420
S':'
asbag55
(g76
g57
NtRp421
(dp422
g60
(dp423
sg69
g408
sg62
(lp424
g55
(g56
g57
NtRp425
(dp426
g60
(dp427
g68
I3
ssg69
g421
sg62
(lp428
S''
asbasbasbasbasbasbasbag55
(g71
g57
NtRp429
(dp430
g60
(dp431
sg69
g232
sg62
(lp432
g55
(g76
g57
NtRp433
(dp434
g60
(dp435
g80
g81
ssg69
g429
sg62
(lp436
S'session_id_ge_finder'
p437
asbag55
(g76
g57
NtRp438
(dp439
g60
(dp440
g87
g88
ssg69
g429
sg62
(lp441
S':'
asbag55
(g76
g57
NtRp442
(dp443
g60
(dp444
sg69
g429
sg62
(lp445
g55
(g56
g57
NtRp446
(dp447
g60
(dp448
g68
I4
ssg69
g442
sg62
(lp449
g55
(g64
g57
NtRp450
(dp451
g60
(dp452
g68
I3
ssg69
Nsg62
(lp453
g55
(g71
g57
NtRp454
(dp455
g60
(dp456
sg69
g450
sg62
(lp457
g55
(g76
g57
NtRp458
(dp459
g60
(dp460
g80
g81
ssg69
g454
sg62
(lp461
g269
asbag55
(g76
g57
NtRp462
(dp463
g60
(dp464
g87
g88
ssg69
g454
sg62
(lp465
S':'
asbag55
(g76
g57
NtRp466
(dp467
g60
(dp468
sg69
g454
sg62
(lp469
g55
(g56
g57
NtRp470
(dp471
g60
(dp472
g68
I3
ssg69
g466
sg62
(lp473
S''
asbasbasbag55
(g71
g57
NtRp474
(dp475
g60
(dp476
sg69
g450
sg62
(lp477
g55
(g76
g57
NtRp478
(dp479
g60
(dp480
g80
g81
ssg69
g474
sg62
(lp481
g290
asbag55
(g76
g57
NtRp482
(dp483
g60
(dp484
g87
g88
ssg69
g474
sg62
(lp485
S':'
asbag55
(g76
g57
NtRp486
(dp487
g60
(dp488
sg69
g474
sg62
(lp489
g55
(g56
g57
NtRp490
(dp491
g60
(dp492
g68
I3
ssg69
g486
sg62
(lp493
S''
asbasbasbag55
(g71
g57
NtRp494
(dp495
g60
(dp496
sg69
g450
sg62
(lp497
g55
(g76
g57
NtRp498
(dp499
g60
(dp500
g80
g81
ssg69
g494
sg62
(lp501
g311
asbag55
(g76
g57
NtRp502
(dp503
g60
(dp504
g87
g88
ssg69
g494
sg62
(lp505
S':'
asbag55
(g76
g57
NtRp506
(dp507
g60
(dp508
sg69
g494
sg62
(lp509
g55
(g56
g57
NtRp510
(dp511
g60
(dp512
g68
I3
ssg69
g506
sg62
(lp513
S''
asbasbasbag55
(g71
g57
NtRp514
(dp515
g60
(dp516
sg69
g450
sg62
(lp517
g55
(g76
g57
NtRp518
(dp519
g60
(dp520
g80
g81
ssg69
g514
sg62
(lp521
g332
asbag55
(g76
g57
NtRp522
(dp523
g60
(dp524
g87
g88
ssg69
g514
sg62
(lp525
S':'
asbag55
(g76
g57
NtRp526
(dp527
g60
(dp528
sg69
g514
sg62
(lp529
g55
(g56
g57
NtRp530
(dp531
g60
(dp532
g68
I3
ssg69
g526
sg62
(lp533
S''
asbasbasbag55
(g71
g57
NtRp534
(dp535
g60
(dp536
sg69
g450
sg62
(lp537
g55
(g76
g57
NtRp538
(dp539
g60
(dp540
g80
g81
ssg69
g534
sg62
(lp541
g353
asbag55
(g76
g57
NtRp542
(dp543
g60
(dp544
g87
g88
ssg69
g534
sg62
(lp545
S':'
asbag55
(g76
g57
NtRp546
(dp547
g60
(dp548
sg69
g534
sg62
(lp549
g55
(g56
g57
NtRp550
(dp551
g60
(dp552
g68
I3
ssg69
g546
sg62
(lp553
S''
asbasbasbag55
(g71
g57
NtRp554
(dp555
g60
(dp556
sg69
g450
sg62
(lp557
g55
(g76
g57
NtRp558
(dp559
g60
(dp560
g80
g81
ssg69
g554
sg62
(lp561
g374
asbag55
(g76
g57
NtRp562
(dp563
g60
(dp564
g87
g88
ssg69
g554
sg62
(lp565
S':'
asbag55
(g76
g57
NtRp566
(dp567
g60
(dp568
sg69
g554
sg62
(lp569
g55
(g56
g57
NtRp570
(dp571
g60
(dp572
g68
I3
ssg69
g566
sg62
(lp573
S''
asbasbasbag55
(g71
g57
NtRp574
(dp575
g60
(dp576
sg69
g450
sg62
(lp577
g55
(g76
g57
NtRp578
(dp579
g60
(dp580
g80
g81
ssg69
g574
sg62
(lp581
g395
asbag55
(g76
g57
NtRp582
(dp583
g60
(dp584
g87
g88
ssg69
g574
sg62
(lp585
S':'
asbag55
(g76
g57
NtRp586
(dp587
g60
(dp588
sg69
g574
sg62
(lp589
g55
(g56
g57
NtRp590
(dp591
g60
(dp592
g68
I3
ssg69
g586
sg62
(lp593
S''
asbasbasbag55
(g71
g57
NtRp594
(dp595
g60
(dp596
sg69
g450
sg62
(lp597
g55
(g76
g57
NtRp598
(dp599
g60
(dp600
g80
g81
ssg69
g594
sg62
(lp601
g416
asbag55
(g76
g57
NtRp602
(dp603
g60
(dp604
g87
g88
ssg69
g594
sg62
(lp605
S':'
asbag55
(g76
g57
NtRp606
(dp607
g60
(dp608
sg69
g594
sg62
(lp609
g55
(g56
g57
NtRp610
(dp611
g60
(dp612
g68
I3
ssg69
g606
sg62
(lp613
S''
asbasbasbasbasbasbasbag55
(g71
g57
NtRp614
(dp615
g60
(dp616
sg69
g232
sg62
(lp617
g55
(g76
g57
NtRp618
(dp619
g60
(dp620
g80
g81
ssg69
g614
sg62
(lp621
S'session_id_msghandler'
p622
asbag55
(g76
g57
NtRp623
(dp624
g60
(dp625
g87
g88
ssg69
g614
sg62
(lp626
S':'
asbag55
(g76
g57
NtRp627
(dp628
g60
(dp629
sg69
g614
sg62
(lp630
g55
(g56
g57
NtRp631
(dp632
g60
(dp633
g68
I4
ssg69
g627
sg62
(lp634
g55
(g64
g57
NtRp635
(dp636
g60
(dp637
g68
I3
ssg69
Nsg62
(lp638
g55
(g71
g57
NtRp639
(dp640
g60
(dp641
sg69
g635
sg62
(lp642
g55
(g76
g57
NtRp643
(dp644
g60
(dp645
g80
g81
ssg69
g639
sg62
(lp646
g269
asbag55
(g76
g57
NtRp647
(dp648
g60
(dp649
g87
g88
ssg69
g639
sg62
(lp650
S':'
asbag55
(g76
g57
NtRp651
(dp652
g60
(dp653
sg69
g639
sg62
(lp654
g55
(g56
g57
NtRp655
(dp656
g60
(dp657
g68
I3
ssg69
g651
sg62
(lp658
S''
asbasbasbag55
(g71
g57
NtRp659
(dp660
g60
(dp661
sg69
g635
sg62
(lp662
g55
(g76
g57
NtRp663
(dp664
g60
(dp665
g80
g81
ssg69
g659
sg62
(lp666
g290
asbag55
(g76
g57
NtRp667
(dp668
g60
(dp669
g87
g88
ssg69
g659
sg62
(lp670
S':'
asbag55
(g76
g57
NtRp671
(dp672
g60
(dp673
sg69
g659
sg62
(lp674
g55
(g56
g57
NtRp675
(dp676
g60
(dp677
g68
I3
ssg69
g671
sg62
(lp678
S''
asbasbasbag55
(g71
g57
NtRp679
(dp680
g60
(dp681
sg69
g635
sg62
(lp682
g55
(g76
g57
NtRp683
(dp684
g60
(dp685
g80
g81
ssg69
g679
sg62
(lp686
g311
asbag55
(g76
g57
NtRp687
(dp688
g60
(dp689
g87
g88
ssg69
g679
sg62
(lp690
S':'
asbag55
(g76
g57
NtRp691
(dp692
g60
(dp693
sg69
g679
sg62
(lp694
g55
(g56
g57
NtRp695
(dp696
g60
(dp697
g68
I3
ssg69
g691
sg62
(lp698
S''
asbasbasbag55
(g71
g57
NtRp699
(dp700
g60
(dp701
sg69
g635
sg62
(lp702
g55
(g76
g57
NtRp703
(dp704
g60
(dp705
g80
g81
ssg69
g699
sg62
(lp706
g332
asbag55
(g76
g57
NtRp707
(dp708
g60
(dp709
g87
g88
ssg69
g699
sg62
(lp710
S':'
asbag55
(g76
g57
NtRp711
(dp712
g60
(dp713
sg69
g699
sg62
(lp714
g55
(g56
g57
NtRp715
(dp716
g60
(dp717
g68
I3
ssg69
g711
sg62
(lp718
S''
asbasbasbag55
(g71
g57
NtRp719
(dp720
g60
(dp721
sg69
g635
sg62
(lp722
g55
(g76
g57
NtRp723
(dp724
g60
(dp725
g80
g81
ssg69
g719
sg62
(lp726
g353
asbag55
(g76
g57
NtRp727
(dp728
g60
(dp729
g87
g88
ssg69
g719
sg62
(lp730
S':'
asbag55
(g76
g57
NtRp731
(dp732
g60
(dp733
sg69
g719
sg62
(lp734
g55
(g56
g57
NtRp735
(dp736
g60
(dp737
g68
I3
ssg69
g731
sg62
(lp738
S''
asbasbasbag55
(g71
g57
NtRp739
(dp740
g60
(dp741
sg69
g635
sg62
(lp742
g55
(g76
g57
NtRp743
(dp744
g60
(dp745
g80
g81
ssg69
g739
sg62
(lp746
g374
asbag55
(g76
g57
NtRp747
(dp748
g60
(dp749
g87
g88
ssg69
g739
sg62
(lp750
S':'
asbag55
(g76
g57
NtRp751
(dp752
g60
(dp753
sg69
g739
sg62
(lp754
g55
(g56
g57
NtRp755
(dp756
g60
(dp757
g68
I3
ssg69
g751
sg62
(lp758
S''
asbasbasbag55
(g71
g57
NtRp759
(dp760
g60
(dp761
sg69
g635
sg62
(lp762
g55
(g76
g57
NtRp763
(dp764
g60
(dp765
g80
g81
ssg69
g759
sg62
(lp766
g395
asbag55
(g76
g57
NtRp767
(dp768
g60
(dp769
g87
g88
ssg69
g759
sg62
(lp770
S':'
asbag55
(g76
g57
NtRp771
(dp772
g60
(dp773
sg69
g759
sg62
(lp774
g55
(g56
g57
NtRp775
(dp776
g60
(dp777
g68
I3
ssg69
g771
sg62
(lp778
S''
asbasbasbag55
(g71
g57
NtRp779
(dp780
g60
(dp781
sg69
g635
sg62
(lp782
g55
(g76
g57
NtRp783
(dp784
g60
(dp785
g80
g81
ssg69
g779
sg62
(lp786
g416
asbag55
(g76
g57
NtRp787
(dp788
g60
(dp789
g87
g88
ssg69
g779
sg62
(lp790
S':'
asbag55
(g76
g57
NtRp791
(dp792
g60
(dp793
sg69
g779
sg62
(lp794
g55
(g56
g57
NtRp795
(dp796
g60
(dp797
g68
I3
ssg69
g791
sg62
(lp798
S''
asbasbasbasbasbasbasbasbasbasbasbag55
(g71
g57
NtRp799
(dp800
g60
(dp801
sg69
g65
sg62
(lp802
g55
(g76
g57
NtRp803
(dp804
g60
(dp805
g80
g81
ssg69
g799
sg62
(lp806
S'env'
p807
asbag55
(g76
g57
NtRp808
(dp809
g60
(dp810
g87
g88
ssg69
g799
sg62
(lp811
S':'
asbag55
(g76
g57
NtRp812
(dp813
g60
(dp814
sg69
g799
sg62
(lp815
g55
(g56
g57
NtRp816
(dp817
g60
(dp818
g68
I5
ssg69
g812
sg62
(lp819
g55
(g64
g57
NtRp820
(dp821
g60
(dp822
g68
I4
ssg69
Nsg62
(lp823
g55
(g71
g57
NtRp824
(dp825
g60
(dp826
sg69
g820
sg62
(lp827
g55
(g76
g57
NtRp828
(dp829
g60
(dp830
g80
g81
ssg69
g824
sg62
(lp831
S'app_folders'
p832
asbag55
(g76
g57
NtRp833
(dp834
g60
(dp835
g87
g88
ssg69
g824
sg62
(lp836
S':'
asbag55
(g76
g57
NtRp837
(dp838
g60
(dp839
sg69
g824
sg62
(lp840
g55
(g56
g57
NtRp841
(dp842
g60
(dp843
g68
I4
ssg69
g837
sg62
(lp844
S"set(['/home/raygomez/web2py/applications/msghandler/', '/home/raygomez/web2py/applications/ge_finder/', '/home/raygomez/web2py/applications/admin/'])"
p845
asbasbasbag55
(g71
g57
NtRp846
(dp847
g60
(dp848
sg69
g820
sg62
(lp849
g55
(g76
g57
NtRp850
(dp851
g60
(dp852
g80
g81
ssg69
g846
sg62
(lp853
S'applications_parent'
p854
asbag55
(g76
g57
NtRp855
(dp856
g60
(dp857
g87
g88
ssg69
g846
sg62
(lp858
S':'
asbag55
(g76
g57
NtRp859
(dp860
g60
(dp861
sg69
g846
sg62
(lp862
g55
(g56
g57
NtRp863
(dp864
g60
(dp865
g68
I4
ssg69
g859
sg62
(lp866
S'/home/raygomez/web2py'
p867
asbasbasbag55
(g71
g57
NtRp868
(dp869
g60
(dp870
sg69
g820
sg62
(lp871
g55
(g76
g57
NtRp872
(dp873
g60
(dp874
g80
g81
ssg69
g868
sg62
(lp875
S'cmd_args'
p876
asbag55
(g76
g57
NtRp877
(dp878
g60
(dp879
g87
g88
ssg69
g868
sg62
(lp880
S':'
asbag55
(g76
g57
NtRp881
(dp882
g60
(dp883
sg69
g868
sg62
(lp884
g55
(g56
g57
NtRp885
(dp886
g60
(dp887
g68
I4
ssg69
g881
sg62
(lp888
g55
(g64
g57
NtRp889
(dp890
g60
(dp891
g68
I3
ssg69
Nsg62
(lp892
sbasbasbasbag55
(g71
g57
NtRp893
(dp894
g60
(dp895
sg69
g820
sg62
(lp896
g55
(g76
g57
NtRp897
(dp898
g60
(dp899
g80
g81
ssg69
g893
sg62
(lp900
S'cmd_options'
p901
asbag55
(g76
g57
NtRp902
(dp903
g60
(dp904
g87
g88
ssg69
g893
sg62
(lp905
S':'
asbag55
(g76
g57
NtRp906
(dp907
g60
(dp908
sg69
g893
sg62
(lp909
g55
(g56
g57
NtRp910
(dp911
g60
(dp912
g68
I4
ssg69
g906
sg62
(lp913
S"<Values at 0x9e1210c: {'verbose': False, 'ip': '127.0.0.1', 'shutdown_timeout': 5, 'taskbar': False, 'port': 8000, 'maxthreads': None, 'softcron': False, 'server_name': 'ivalice', 'bpython': False, 'nogui': False, 'nocron': False, 'extcron': False, 'debuglevel': 30, 'test': None, 'folder': '/home/raygomez/web2py', 'config': '', 'import_models': False, 'winservice': '', 'shell': None, 'run': '', 'log_filename': 'httpserver.log', 'args': [''], 'profiler_filename': None, 'ssl_private_key': '', 'password': '1', 'request_queue_size': 5, 'ssl_certificate': '', 'cronjob': False, 'plain': False, 'quiet': False, 'interfaces': None, 'minthreads': None, 'timeout': 10, 'numthreads': None, 'pid_filename': 'httpserver.pid'}>"
p914
asbasbasbag55
(g71
g57
NtRp915
(dp916
g60
(dp917
sg69
g820
sg62
(lp918
g55
(g76
g57
NtRp919
(dp920
g60
(dp921
g80
g81
ssg69
g915
sg62
(lp922
S'db_sessions'
p923
asbag55
(g76
g57
NtRp924
(dp925
g60
(dp926
g87
g88
ssg69
g915
sg62
(lp927
S':'
asbag55
(g76
g57
NtRp928
(dp929
g60
(dp930
sg69
g915
sg62
(lp931
g55
(g56
g57
NtRp932
(dp933
g60
(dp934
g68
I4
ssg69
g928
sg62
(lp935
S'set([])'
p936
asbasbasbag55
(g71
g57
NtRp937
(dp938
g60
(dp939
sg69
g820
sg62
(lp940
g55
(g76
g57
NtRp941
(dp942
g60
(dp943
g80
g81
ssg69
g937
sg62
(lp944
S'debugging'
p945
asbag55
(g76
g57
NtRp946
(dp947
g60
(dp948
g87
g88
ssg69
g937
sg62
(lp949
S':'
asbag55
(g76
g57
NtRp950
(dp951
g60
(dp952
sg69
g937
sg62
(lp953
g55
(g56
g57
NtRp954
(dp955
g60
(dp956
g68
I4
ssg69
g950
sg62
(lp957
g98
asbasbasbag55
(g71
g57
NtRp958
(dp959
g60
(dp960
sg69
g820
sg62
(lp961
g55
(g76
g57
NtRp962
(dp963
g60
(dp964
g80
g81
ssg69
g958
sg62
(lp965
S'gluon_parent'
p966
asbag55
(g76
g57
NtRp967
(dp968
g60
(dp969
g87
g88
ssg69
g958
sg62
(lp970
S':'
asbag55
(g76
g57
NtRp971
(dp972
g60
(dp973
sg69
g958
sg62
(lp974
g55
(g56
g57
NtRp975
(dp976
g60
(dp977
g68
I4
ssg69
g971
sg62
(lp978
S'/home/raygomez/web2py'
p979
asbasbasbag55
(g71
g57
NtRp980
(dp981
g60
(dp982
sg69
g820
sg62
(lp983
g55
(g76
g57
NtRp984
(dp985
g60
(dp986
g80
g81
ssg69
g980
sg62
(lp987
S'http_accept'
p988
asbag55
(g76
g57
NtRp989
(dp990
g60
(dp991
g87
g88
ssg69
g980
sg62
(lp992
S':'
asbag55
(g76
g57
NtRp993
(dp994
g60
(dp995
sg69
g980
sg62
(lp996
g55
(g56
g57
NtRp997
(dp998
g60
(dp999
g68
I4
ssg69
g993
sg62
(lp1000
S'application/xml,application/xhtml+xml,text/html;q=0.9,text/plain;q=0.8,image/png,*/*;q=0.5'
p1001
asbasbasbag55
(g71
g57
NtRp1002
(dp1003
g60
(dp1004
sg69
g820
sg62
(lp1005
g55
(g76
g57
NtRp1006
(dp1007
g60
(dp1008
g80
g81
ssg69
g1002
sg62
(lp1009
S'http_accept_charset'
p1010
asbag55
(g76
g57
NtRp1011
(dp1012
g60
(dp1013
g87
g88
ssg69
g1002
sg62
(lp1014
S':'
asbag55
(g76
g57
NtRp1015
(dp1016
g60
(dp1017
sg69
g1002
sg62
(lp1018
g55
(g56
g57
NtRp1019
(dp1020
g60
(dp1021
g68
I4
ssg69
g1015
sg62
(lp1022
S'ISO-8859-1,utf-8;q=0.7,*;q=0.3'
p1023
asbasbasbag55
(g71
g57
NtRp1024
(dp1025
g60
(dp1026
sg69
g820
sg62
(lp1027
g55
(g76
g57
NtRp1028
(dp1029
g60
(dp1030
g80
g81
ssg69
g1024
sg62
(lp1031
S'http_accept_encoding'
p1032
asbag55
(g76
g57
NtRp1033
(dp1034
g60
(dp1035
g87
g88
ssg69
g1024
sg62
(lp1036
S':'
asbag55
(g76
g57
NtRp1037
(dp1038
g60
(dp1039
sg69
g1024
sg62
(lp1040
g55
(g56
g57
NtRp1041
(dp1042
g60
(dp1043
g68
I4
ssg69
g1037
sg62
(lp1044
S'gzip,deflate,sdch'
p1045
asbasbasbag55
(g71
g57
NtRp1046
(dp1047
g60
(dp1048
sg69
g820
sg62
(lp1049
g55
(g76
g57
NtRp1050
(dp1051
g60
(dp1052
g80
g81
ssg69
g1046
sg62
(lp1053
S'http_accept_language'
p1054
asbag55
(g76
g57
NtRp1055
(dp1056
g60
(dp1057
g87
g88
ssg69
g1046
sg62
(lp1058
S':'
asbag55
(g76
g57
NtRp1059
(dp1060
g60
(dp1061
sg69
g1046
sg62
(lp1062
g55
(g56
g57
NtRp1063
(dp1064
g60
(dp1065
g68
I4
ssg69
g1059
sg62
(lp1066
S'en,es;q=0.8,en-US;q=0.6'
p1067
asbasbasbag55
(g71
g57
NtRp1068
(dp1069
g60
(dp1070
sg69
g820
sg62
(lp1071
g55
(g76
g57
NtRp1072
(dp1073
g60
(dp1074
g80
g81
ssg69
g1068
sg62
(lp1075
S'http_cache_control'
p1076
asbag55
(g76
g57
NtRp1077
(dp1078
g60
(dp1079
g87
g88
ssg69
g1068
sg62
(lp1080
S':'
asbag55
(g76
g57
NtRp1081
(dp1082
g60
(dp1083
sg69
g1068
sg62
(lp1084
g55
(g56
g57
NtRp1085
(dp1086
g60
(dp1087
g68
I4
ssg69
g1081
sg62
(lp1088
S'max-age=0'
p1089
asbasbasbag55
(g71
g57
NtRp1090
(dp1091
g60
(dp1092
sg69
g820
sg62
(lp1093
g55
(g76
g57
NtRp1094
(dp1095
g60
(dp1096
g80
g81
ssg69
g1090
sg62
(lp1097
S'http_connection'
p1098
asbag55
(g76
g57
NtRp1099
(dp1100
g60
(dp1101
g87
g88
ssg69
g1090
sg62
(lp1102
S':'
asbag55
(g76
g57
NtRp1103
(dp1104
g60
(dp1105
sg69
g1090
sg62
(lp1106
g55
(g56
g57
NtRp1107
(dp1108
g60
(dp1109
g68
I4
ssg69
g1103
sg62
(lp1110
S'keep-alive'
p1111
asbasbasbag55
(g71
g57
NtRp1112
(dp1113
g60
(dp1114
sg69
g820
sg62
(lp1115
g55
(g76
g57
NtRp1116
(dp1117
g60
(dp1118
g80
g81
ssg69
g1112
sg62
(lp1119
S'http_cookie'
p1120
asbag55
(g76
g57
NtRp1121
(dp1122
g60
(dp1123
g87
g88
ssg69
g1112
sg62
(lp1124
S':'
asbag55
(g76
g57
NtRp1125
(dp1126
g60
(dp1127
sg69
g1112
sg62
(lp1128
g55
(g56
g57
NtRp1129
(dp1130
g60
(dp1131
g68
I4
ssg69
g1125
sg62
(lp1132
S'session_id_msghandler=127.0.0.1-019d8e16-9c38-4188-81fb-b58d2ce98253; session_id_ge_finder=127.0.0.1-07cd66d6-bb93-4ff8-9b2a-a62ed2a57ecb; session_id_admin=127.0.0.1-385eb62a-7ea8-4559-87a5-b70e60a75202'
p1133
asbasbasbag55
(g71
g57
NtRp1134
(dp1135
g60
(dp1136
sg69
g820
sg62
(lp1137
g55
(g76
g57
NtRp1138
(dp1139
g60
(dp1140
g80
g81
ssg69
g1134
sg62
(lp1141
S'http_host'
p1142
asbag55
(g76
g57
NtRp1143
(dp1144
g60
(dp1145
g87
g88
ssg69
g1134
sg62
(lp1146
S':'
asbag55
(g76
g57
NtRp1147
(dp1148
g60
(dp1149
sg69
g1134
sg62
(lp1150
g55
(g56
g57
NtRp1151
(dp1152
g60
(dp1153
g68
I4
ssg69
g1147
sg62
(lp1154
S'localhost:8000'
p1155
asbasbasbag55
(g71
g57
NtRp1156
(dp1157
g60
(dp1158
sg69
g820
sg62
(lp1159
g55
(g76
g57
NtRp1160
(dp1161
g60
(dp1162
g80
g81
ssg69
g1156
sg62
(lp1163
S'http_user_agent'
p1164
asbag55
(g76
g57
NtRp1165
(dp1166
g60
(dp1167
g87
g88
ssg69
g1156
sg62
(lp1168
S':'
asbag55
(g76
g57
NtRp1169
(dp1170
g60
(dp1171
sg69
g1156
sg62
(lp1172
g55
(g56
g57
NtRp1173
(dp1174
g60
(dp1175
g68
I4
ssg69
g1169
sg62
(lp1176
S'Mozilla/5.0 (X11; Linux i686) AppleWebKit/534.24 (KHTML, like Gecko) Ubuntu/11.04 Chromium/11.0.696.68 Chrome/11.0.696.68 Safari/534.24'
p1177
asbasbasbag55
(g71
g57
NtRp1178
(dp1179
g60
(dp1180
sg69
g820
sg62
(lp1181
g55
(g76
g57
NtRp1182
(dp1183
g60
(dp1184
g80
g81
ssg69
g1178
sg62
(lp1185
S'path_info'
p1186
asbag55
(g76
g57
NtRp1187
(dp1188
g60
(dp1189
g87
g88
ssg69
g1178
sg62
(lp1190
S':'
asbag55
(g76
g57
NtRp1191
(dp1192
g60
(dp1193
sg69
g1178
sg62
(lp1194
g55
(g56
g57
NtRp1195
(dp1196
g60
(dp1197
g68
I4
ssg69
g1191
sg62
(lp1198
S'/ge_finder/default/index'
p1199
asbasbasbag55
(g71
g57
NtRp1200
(dp1201
g60
(dp1202
sg69
g820
sg62
(lp1203
g55
(g76
g57
NtRp1204
(dp1205
g60
(dp1206
g80
g81
ssg69
g1200
sg62
(lp1207
S'query_string'
p1208
asbag55
(g76
g57
NtRp1209
(dp1210
g60
(dp1211
g87
g88
ssg69
g1200
sg62
(lp1212
S':'
asbag55
(g76
g57
NtRp1213
(dp1214
g60
(dp1215
sg69
g1200
sg62
(lp1216
g55
(g56
g57
NtRp1217
(dp1218
g60
(dp1219
g68
I4
ssg69
g1213
sg62
(lp1220
S''
asbasbasbag55
(g71
g57
NtRp1221
(dp1222
g60
(dp1223
sg69
g820
sg62
(lp1224
g55
(g76
g57
NtRp1225
(dp1226
g60
(dp1227
g80
g81
ssg69
g1221
sg62
(lp1228
S'remote_addr'
p1229
asbag55
(g76
g57
NtRp1230
(dp1231
g60
(dp1232
g87
g88
ssg69
g1221
sg62
(lp1233
S':'
asbag55
(g76
g57
NtRp1234
(dp1235
g60
(dp1236
sg69
g1221
sg62
(lp1237
g55
(g56
g57
NtRp1238
(dp1239
g60
(dp1240
g68
I4
ssg69
g1234
sg62
(lp1241
g188
asbasbasbag55
(g71
g57
NtRp1242
(dp1243
g60
(dp1244
sg69
g820
sg62
(lp1245
g55
(g76
g57
NtRp1246
(dp1247
g60
(dp1248
g80
g81
ssg69
g1242
sg62
(lp1249
S'remote_port'
p1250
asbag55
(g76
g57
NtRp1251
(dp1252
g60
(dp1253
g87
g88
ssg69
g1242
sg62
(lp1254
S':'
asbag55
(g76
g57
NtRp1255
(dp1256
g60
(dp1257
sg69
g1242
sg62
(lp1258
g55
(g56
g57
NtRp1259
(dp1260
g60
(dp1261
g68
I4
ssg69
g1255
sg62
(lp1262
S'56761'
p1263
asbasbasbag55
(g71
g57
NtRp1264
(dp1265
g60
(dp1266
sg69
g820
sg62
(lp1267
g55
(g76
g57
NtRp1268
(dp1269
g60
(dp1270
g80
g81
ssg69
g1264
sg62
(lp1271
S'request_method'
p1272
asbag55
(g76
g57
NtRp1273
(dp1274
g60
(dp1275
g87
g88
ssg69
g1264
sg62
(lp1276
S':'
asbag55
(g76
g57
NtRp1277
(dp1278
g60
(dp1279
sg69
g1264
sg62
(lp1280
g55
(g56
g57
NtRp1281
(dp1282
g60
(dp1283
g68
I4
ssg69
g1277
sg62
(lp1284
S'GET'
p1285
asbasbasbag55
(g71
g57
NtRp1286
(dp1287
g60
(dp1288
sg69
g820
sg62
(lp1289
g55
(g76
g57
NtRp1290
(dp1291
g60
(dp1292
g80
g81
ssg69
g1286
sg62
(lp1293
S'request_uri'
p1294
asbag55
(g76
g57
NtRp1295
(dp1296
g60
(dp1297
g87
g88
ssg69
g1286
sg62
(lp1298
S':'
asbag55
(g76
g57
NtRp1299
(dp1300
g60
(dp1301
sg69
g1286
sg62
(lp1302
g55
(g56
g57
NtRp1303
(dp1304
g60
(dp1305
g68
I4
ssg69
g1299
sg62
(lp1306
g1199
asbasbasbag55
(g71
g57
NtRp1307
(dp1308
g60
(dp1309
sg69
g820
sg62
(lp1310
g55
(g76
g57
NtRp1311
(dp1312
g60
(dp1313
g80
g81
ssg69
g1307
sg62
(lp1314
S'script_name'
p1315
asbag55
(g76
g57
NtRp1316
(dp1317
g60
(dp1318
g87
g88
ssg69
g1307
sg62
(lp1319
S':'
asbag55
(g76
g57
NtRp1320
(dp1321
g60
(dp1322
sg69
g1307
sg62
(lp1323
g55
(g56
g57
NtRp1324
(dp1325
g60
(dp1326
g68
I4
ssg69
g1320
sg62
(lp1327
S''
asbasbasbag55
(g71
g57
NtRp1328
(dp1329
g60
(dp1330
sg69
g820
sg62
(lp1331
g55
(g76
g57
NtRp1332
(dp1333
g60
(dp1334
g80
g81
ssg69
g1328
sg62
(lp1335
S'server_name'
p1336
asbag55
(g76
g57
NtRp1337
(dp1338
g60
(dp1339
g87
g88
ssg69
g1328
sg62
(lp1340
S':'
asbag55
(g76
g57
NtRp1341
(dp1342
g60
(dp1343
sg69
g1328
sg62
(lp1344
g55
(g56
g57
NtRp1345
(dp1346
g60
(dp1347
g68
I4
ssg69
g1341
sg62
(lp1348
S'ivalice'
p1349
asbasbasbag55
(g71
g57
NtRp1350
(dp1351
g60
(dp1352
sg69
g820
sg62
(lp1353
g55
(g76
g57
NtRp1354
(dp1355
g60
(dp1356
g80
g81
ssg69
g1350
sg62
(lp1357
S'server_port'
p1358
asbag55
(g76
g57
NtRp1359
(dp1360
g60
(dp1361
g87
g88
ssg69
g1350
sg62
(lp1362
S':'
asbag55
(g76
g57
NtRp1363
(dp1364
g60
(dp1365
sg69
g1350
sg62
(lp1366
g55
(g56
g57
NtRp1367
(dp1368
g60
(dp1369
g68
I4
ssg69
g1363
sg62
(lp1370
S'8000'
p1371
asbasbasbag55
(g71
g57
NtRp1372
(dp1373
g60
(dp1374
sg69
g820
sg62
(lp1375
g55
(g76
g57
NtRp1376
(dp1377
g60
(dp1378
g80
g81
ssg69
g1372
sg62
(lp1379
S'server_protocol'
p1380
asbag55
(g76
g57
NtRp1381
(dp1382
g60
(dp1383
g87
g88
ssg69
g1372
sg62
(lp1384
S':'
asbag55
(g76
g57
NtRp1385
(dp1386
g60
(dp1387
sg69
g1372
sg62
(lp1388
g55
(g56
g57
NtRp1389
(dp1390
g60
(dp1391
g68
I4
ssg69
g1385
sg62
(lp1392
S'HTTP/1.1'
p1393
asbasbasbag55
(g71
g57
NtRp1394
(dp1395
g60
(dp1396
sg69
g820
sg62
(lp1397
g55
(g76
g57
NtRp1398
(dp1399
g60
(dp1400
g80
g81
ssg69
g1394
sg62
(lp1401
S'server_software'
p1402
asbag55
(g76
g57
NtRp1403
(dp1404
g60
(dp1405
g87
g88
ssg69
g1394
sg62
(lp1406
S':'
asbag55
(g76
g57
NtRp1407
(dp1408
g60
(dp1409
sg69
g1394
sg62
(lp1410
g55
(g56
g57
NtRp1411
(dp1412
g60
(dp1413
g68
I4
ssg69
g1407
sg62
(lp1414
S'Rocket 1.2.2'
p1415
asbasbasbag55
(g71
g57
NtRp1416
(dp1417
g60
(dp1418
sg69
g820
sg62
(lp1419
g55
(g76
g57
NtRp1420
(dp1421
g60
(dp1422
g80
g81
ssg69
g1416
sg62
(lp1423
S'web2py_crontype'
p1424
asbag55
(g76
g57
NtRp1425
(dp1426
g60
(dp1427
g87
g88
ssg69
g1416
sg62
(lp1428
S':'
asbag55
(g76
g57
NtRp1429
(dp1430
g60
(dp1431
sg69
g1416
sg62
(lp1432
g55
(g56
g57
NtRp1433
(dp1434
g60
(dp1435
g68
I4
ssg69
g1429
sg62
(lp1436
S'hard'
p1437
asbasbasbag55
(g71
g57
NtRp1438
(dp1439
g60
(dp1440
sg69
g820
sg62
(lp1441
g55
(g76
g57
NtRp1442
(dp1443
g60
(dp1444
g80
g81
ssg69
g1438
sg62
(lp1445
S'web2py_original_uri'
p1446
asbag55
(g76
g57
NtRp1447
(dp1448
g60
(dp1449
g87
g88
ssg69
g1438
sg62
(lp1450
S':'
asbag55
(g76
g57
NtRp1451
(dp1452
g60
(dp1453
sg69
g1438
sg62
(lp1454
g55
(g56
g57
NtRp1455
(dp1456
g60
(dp1457
g68
I4
ssg69
g1451
sg62
(lp1458
g1199
asbasbasbag55
(g71
g57
NtRp1459
(dp1460
g60
(dp1461
sg69
g820
sg62
(lp1462
g55
(g76
g57
NtRp1463
(dp1464
g60
(dp1465
g80
g81
ssg69
g1459
sg62
(lp1466
S'web2py_path'
p1467
asbag55
(g76
g57
NtRp1468
(dp1469
g60
(dp1470
g87
g88
ssg69
g1459
sg62
(lp1471
S':'
asbag55
(g76
g57
NtRp1472
(dp1473
g60
(dp1474
sg69
g1459
sg62
(lp1475
g55
(g56
g57
NtRp1476
(dp1477
g60
(dp1478
g68
I4
ssg69
g1472
sg62
(lp1479
g867
asbasbasbag55
(g71
g57
NtRp1480
(dp1481
g60
(dp1482
sg69
g820
sg62
(lp1483
g55
(g76
g57
NtRp1484
(dp1485
g60
(dp1486
g80
g81
ssg69
g1480
sg62
(lp1487
S'web2py_version'
p1488
asbag55
(g76
g57
NtRp1489
(dp1490
g60
(dp1491
g87
g88
ssg69
g1480
sg62
(lp1492
S':'
asbag55
(g76
g57
NtRp1493
(dp1494
g60
(dp1495
sg69
g1480
sg62
(lp1496
g55
(g56
g57
NtRp1497
(dp1498
g60
(dp1499
g68
I4
ssg69
g1493
sg62
(lp1500
S'Version 1.95.1 (2011-04-25 15:04:14)\n'
p1501
asbasbasbag55
(g71
g57
NtRp1502
(dp1503
g60
(dp1504
sg69
g820
sg62
(lp1505
g55
(g76
g57
NtRp1506
(dp1507
g60
(dp1508
g80
g81
ssg69
g1502
sg62
(lp1509
S'wsgi_errors'
p1510
asbag55
(g76
g57
NtRp1511
(dp1512
g60
(dp1513
g87
g88
ssg69
g1502
sg62
(lp1514
S':'
asbag55
(g76
g57
NtRp1515
(dp1516
g60
(dp1517
sg69
g1502
sg62
(lp1518
g55
(g56
g57
NtRp1519
(dp1520
g60
(dp1521
g68
I4
ssg69
g1515
sg62
(lp1522
S"<open file '<stderr>', mode 'w' at 0xb77b80d0>"
p1523
asbasbasbag55
(g71
g57
NtRp1524
(dp1525
g60
(dp1526
sg69
g820
sg62
(lp1527
g55
(g76
g57
NtRp1528
(dp1529
g60
(dp1530
g80
g81
ssg69
g1524
sg62
(lp1531
S'wsgi_file_wrapper'
p1532
asbag55
(g76
g57
NtRp1533
(dp1534
g60
(dp1535
g87
g88
ssg69
g1524
sg62
(lp1536
S':'
asbag55
(g76
g57
NtRp1537
(dp1538
g60
(dp1539
sg69
g1524
sg62
(lp1540
g55
(g56
g57
NtRp1541
(dp1542
g60
(dp1543
g68
I4
ssg69
g1537
sg62
(lp1544
S'<class gluon.rocket.FileWrapper at 0x9d865cc>'
p1545
asbasbasbag55
(g71
g57
NtRp1546
(dp1547
g60
(dp1548
sg69
g820
sg62
(lp1549
g55
(g76
g57
NtRp1550
(dp1551
g60
(dp1552
g80
g81
ssg69
g1546
sg62
(lp1553
S'wsgi_input'
p1554
asbag55
(g76
g57
NtRp1555
(dp1556
g60
(dp1557
g87
g88
ssg69
g1546
sg62
(lp1558
S':'
asbag55
(g76
g57
NtRp1559
(dp1560
g60
(dp1561
sg69
g1546
sg62
(lp1562
g55
(g56
g57
NtRp1563
(dp1564
g60
(dp1565
g68
I4
ssg69
g1559
sg62
(lp1566
S'<socket._fileobject object at 0x9e91a6c>'
p1567
asbasbasbag55
(g71
g57
NtRp1568
(dp1569
g60
(dp1570
sg69
g820
sg62
(lp1571
g55
(g76
g57
NtRp1572
(dp1573
g60
(dp1574
g80
g81
ssg69
g1568
sg62
(lp1575
S'wsgi_multiprocess'
p1576
asbag55
(g76
g57
NtRp1577
(dp1578
g60
(dp1579
g87
g88
ssg69
g1568
sg62
(lp1580
S':'
asbag55
(g76
g57
NtRp1581
(dp1582
g60
(dp1583
sg69
g1568
sg62
(lp1584
g55
(g56
g57
NtRp1585
(dp1586
g60
(dp1587
g68
I4
ssg69
g1581
sg62
(lp1588
g98
asbasbasbag55
(g71
g57
NtRp1589
(dp1590
g60
(dp1591
sg69
g820
sg62
(lp1592
g55
(g76
g57
NtRp1593
(dp1594
g60
(dp1595
g80
g81
ssg69
g1589
sg62
(lp1596
S'wsgi_multithread'
p1597
asbag55
(g76
g57
NtRp1598
(dp1599
g60
(dp1600
g87
g88
ssg69
g1589
sg62
(lp1601
S':'
asbag55
(g76
g57
NtRp1602
(dp1603
g60
(dp1604
sg69
g1589
sg62
(lp1605
g55
(g56
g57
NtRp1606
(dp1607
g60
(dp1608
g68
I4
ssg69
g1602
sg62
(lp1609
S'True'
p1610
asbasbasbag55
(g71
g57
NtRp1611
(dp1612
g60
(dp1613
sg69
g820
sg62
(lp1614
g55
(g76
g57
NtRp1615
(dp1616
g60
(dp1617
g80
g81
ssg69
g1611
sg62
(lp1618
S'wsgi_run_once'
p1619
asbag55
(g76
g57
NtRp1620
(dp1621
g60
(dp1622
g87
g88
ssg69
g1611
sg62
(lp1623
S':'
asbag55
(g76
g57
NtRp1624
(dp1625
g60
(dp1626
sg69
g1611
sg62
(lp1627
g55
(g56
g57
NtRp1628
(dp1629
g60
(dp1630
g68
I4
ssg69
g1624
sg62
(lp1631
g98
asbasbasbag55
(g71
g57
NtRp1632
(dp1633
g60
(dp1634
sg69
g820
sg62
(lp1635
g55
(g76
g57
NtRp1636
(dp1637
g60
(dp1638
g80
g81
ssg69
g1632
sg62
(lp1639
S'wsgi_url_scheme'
p1640
asbag55
(g76
g57
NtRp1641
(dp1642
g60
(dp1643
g87
g88
ssg69
g1632
sg62
(lp1644
S':'
asbag55
(g76
g57
NtRp1645
(dp1646
g60
(dp1647
sg69
g1632
sg62
(lp1648
g55
(g56
g57
NtRp1649
(dp1650
g60
(dp1651
g68
I4
ssg69
g1645
sg62
(lp1652
S'http'
p1653
asbasbasbag55
(g71
g57
NtRp1654
(dp1655
g60
(dp1656
sg69
g820
sg62
(lp1657
g55
(g76
g57
NtRp1658
(dp1659
g60
(dp1660
g80
g81
ssg69
g1654
sg62
(lp1661
S'wsgi_version'
p1662
asbag55
(g76
g57
NtRp1663
(dp1664
g60
(dp1665
g87
g88
ssg69
g1654
sg62
(lp1666
S':'
asbag55
(g76
g57
NtRp1667
(dp1668
g60
(dp1669
sg69
g1654
sg62
(lp1670
g55
(g56
g57
NtRp1671
(dp1672
g60
(dp1673
g68
I4
ssg69
g1667
sg62
(lp1674
g55
(g64
g57
NtRp1675
(dp1676
g60
(dp1677
g68
I3
ssg69
Nsg62
(lp1678
g55
(g71
g57
NtRp1679
(dp1680
g60
(dp1681
sg69
g1675
sg62
(lp1682
g55
(g76
g57
NtRp1683
(dp1684
g60
(dp1685
sg69
g1679
sg62
(lp1686
g55
(g56
g57
NtRp1687
(dp1688
g60
(dp1689
g68
I3
ssg69
g1683
sg62
(lp1690
S'1'
asbasbasbag55
(g71
g57
NtRp1691
(dp1692
g60
(dp1693
sg69
g1675
sg62
(lp1694
g55
(g76
g57
NtRp1695
(dp1696
g60
(dp1697
sg69
g1691
sg62
(lp1698
g55
(g56
g57
NtRp1699
(dp1700
g60
(dp1701
g68
I3
ssg69
g1695
sg62
(lp1702
S'0'
asbasbasbasbasbasbasbasbasbasbasbag55
(g71
g57
NtRp1703
(dp1704
g60
(dp1705
sg69
g65
sg62
(lp1706
g55
(g76
g57
NtRp1707
(dp1708
g60
(dp1709
g80
g81
ssg69
g1703
sg62
(lp1710
S'extension'
p1711
asbag55
(g76
g57
NtRp1712
(dp1713
g60
(dp1714
g87
g88
ssg69
g1703
sg62
(lp1715
S':'
asbag55
(g76
g57
NtRp1716
(dp1717
g60
(dp1718
sg69
g1703
sg62
(lp1719
g55
(g56
g57
NtRp1720
(dp1721
g60
(dp1722
g68
I5
ssg69
g1716
sg62
(lp1723
S'html'
p1724
asbasbasbag55
(g71
g57
NtRp1725
(dp1726
g60
(dp1727
sg69
g65
sg62
(lp1728
g55
(g76
g57
NtRp1729
(dp1730
g60
(dp1731
g80
g81
ssg69
g1725
sg62
(lp1732
S'folder'
p1733
asbag55
(g76
g57
NtRp1734
(dp1735
g60
(dp1736
g87
g88
ssg69
g1725
sg62
(lp1737
S':'
asbag55
(g76
g57
NtRp1738
(dp1739
g60
(dp1740
sg69
g1725
sg62
(lp1741
g55
(g56
g57
NtRp1742
(dp1743
g60
(dp1744
g68
I5
ssg69
g1738
sg62
(lp1745
S'/home/raygomez/web2py/applications/ge_finder/'
p1746
asbasbasbag55
(g71
g57
NtRp1747
(dp1748
g60
(dp1749
sg69
g65
sg62
(lp1750
g55
(g76
g57
NtRp1751
(dp1752
g60
(dp1753
g80
g81
ssg69
g1747
sg62
(lp1754
S'function'
p1755
asbag55
(g76
g57
NtRp1756
(dp1757
g60
(dp1758
g87
g88
ssg69
g1747
sg62
(lp1759
S':'
asbag55
(g76
g57
NtRp1760
(dp1761
g60
(dp1762
sg69
g1747
sg62
(lp1763
g55
(g56
g57
NtRp1764
(dp1765
g60
(dp1766
g68
I5
ssg69
g1760
sg62
(lp1767
S'index'
p1768
asbasbasbag55
(g71
g57
NtRp1769
(dp1770
g60
(dp1771
sg69
g65
sg62
(lp1772
g55
(g76
g57
NtRp1773
(dp1774
g60
(dp1775
g80
g81
ssg69
g1769
sg62
(lp1776
S'get_vars'
p1777
asbag55
(g76
g57
NtRp1778
(dp1779
g60
(dp1780
g87
g88
ssg69
g1769
sg62
(lp1781
S':'
asbag55
(g76
g57
NtRp1782
(dp1783
g60
(dp1784
sg69
g1769
sg62
(lp1785
g55
(g56
g57
NtRp1786
(dp1787
g60
(dp1788
g68
I5
ssg69
g1782
sg62
(lp1789
g55
(g64
g57
NtRp1790
(dp1791
g60
(dp1792
g68
I4
ssg69
Nsg62
(lp1793
sbasbasbasbag55
(g71
g57
NtRp1794
(dp1795
g60
(dp1796
sg69
g65
sg62
(lp1797
g55
(g76
g57
NtRp1798
(dp1799
g60
(dp1800
g80
g81
ssg69
g1794
sg62
(lp1801
S'is_restful'
p1802
asbag55
(g76
g57
NtRp1803
(dp1804
g60
(dp1805
g87
g88
ssg69
g1794
sg62
(lp1806
S':'
asbag55
(g76
g57
NtRp1807
(dp1808
g60
(dp1809
sg69
g1794
sg62
(lp1810
g55
(g56
g57
NtRp1811
(dp1812
g60
(dp1813
g68
I5
ssg69
g1807
sg62
(lp1814
g98
asbasbasbag55
(g71
g57
NtRp1815
(dp1816
g60
(dp1817
sg69
g65
sg62
(lp1818
g55
(g76
g57
NtRp1819
(dp1820
g60
(dp1821
g80
g81
ssg69
g1815
sg62
(lp1822
S'now'
p1823
asbag55
(g76
g57
NtRp1824
(dp1825
g60
(dp1826
g87
g88
ssg69
g1815
sg62
(lp1827
S':'
asbag55
(g76
g57
NtRp1828
(dp1829
g60
(dp1830
sg69
g1815
sg62
(lp1831
g55
(g56
g57
NtRp1832
(dp1833
g60
(dp1834
g68
I5
ssg69
g1828
sg62
(lp1835
S'datetime.datetime(2011, 5, 23, 9, 39, 10, 608842)'
p1836
asbasbasbag55
(g71
g57
NtRp1837
(dp1838
g60
(dp1839
sg69
g65
sg62
(lp1840
g55
(g76
g57
NtRp1841
(dp1842
g60
(dp1843
g80
g81
ssg69
g1837
sg62
(lp1844
S'post_vars'
p1845
asbag55
(g76
g57
NtRp1846
(dp1847
g60
(dp1848
g87
g88
ssg69
g1837
sg62
(lp1849
S':'
asbag55
(g76
g57
NtRp1850
(dp1851
g60
(dp1852
sg69
g1837
sg62
(lp1853
g55
(g56
g57
NtRp1854
(dp1855
g60
(dp1856
g68
I5
ssg69
g1850
sg62
(lp1857
g55
(g64
g57
NtRp1858
(dp1859
g60
(dp1860
g68
I4
ssg69
Nsg62
(lp1861
sbasbasbasbag55
(g71
g57
NtRp1862
(dp1863
g60
(dp1864
sg69
g65
sg62
(lp1865
g55
(g76
g57
NtRp1866
(dp1867
g60
(dp1868
g80
g81
ssg69
g1862
sg62
(lp1869
S'url'
p1870
asbag55
(g76
g57
NtRp1871
(dp1872
g60
(dp1873
g87
g88
ssg69
g1862
sg62
(lp1874
S':'
asbag55
(g76
g57
NtRp1875
(dp1876
g60
(dp1877
sg69
g1862
sg62
(lp1878
g55
(g56
g57
NtRp1879
(dp1880
g60
(dp1881
g68
I5
ssg69
g1875
sg62
(lp1882
S'/ge_finder/default/index'
p1883
asbasbasbag55
(g71
g57
NtRp1884
(dp1885
g60
(dp1886
sg69
g65
sg62
(lp1887
g55
(g76
g57
NtRp1888
(dp1889
g60
(dp1890
g80
g81
ssg69
g1884
sg62
(lp1891
S'uuid'
p1892
asbag55
(g76
g57
NtRp1893
(dp1894
g60
(dp1895
g87
g88
ssg69
g1884
sg62
(lp1896
S':'
asbag55
(g76
g57
NtRp1897
(dp1898
g60
(dp1899
sg69
g1884
sg62
(lp1900
g55
(g56
g57
NtRp1901
(dp1902
g60
(dp1903
g68
I5
ssg69
g1897
sg62
(lp1904
S'ge_finder/127.0.0.1.2011-05-23.09-39-10.467058dc-b2cf-48bd-9458-69e764c7afcc'
p1905
asbasbasbag55
(g71
g57
NtRp1906
(dp1907
g60
(dp1908
sg69
g65
sg62
(lp1909
g55
(g76
g57
NtRp1910
(dp1911
g60
(dp1912
g80
g81
ssg69
g1906
sg62
(lp1913
S'vars'
p1914
asbag55
(g76
g57
NtRp1915
(dp1916
g60
(dp1917
g87
g88
ssg69
g1906
sg62
(lp1918
S':'
asbag55
(g76
g57
NtRp1919
(dp1920
g60
(dp1921
sg69
g1906
sg62
(lp1922
g55
(g56
g57
NtRp1923
(dp1924
g60
(dp1925
g68
I5
ssg69
g1919
sg62
(lp1926
g55
(g64
g57
NtRp1927
(dp1928
g60
(dp1929
g68
I4
ssg69
Nsg62
(lp1930
sbasbasbasbag55
(g71
g57
NtRp1931
(dp1932
g60
(dp1933
sg69
g65
sg62
(lp1934
g55
(g76
g57
NtRp1935
(dp1936
g60
(dp1937
g80
g81
ssg69
g1931
sg62
(lp1938
S'wsgi'
p1939
asbag55
(g76
g57
NtRp1940
(dp1941
g60
(dp1942
g87
g88
ssg69
g1931
sg62
(lp1943
S':'
asbag55
(g76
g57
NtRp1944
(dp1945
g60
(dp1946
sg69
g1931
sg62
(lp1947
g55
(g56
g57
NtRp1948
(dp1949
g60
(dp1950
g68
I5
ssg69
g1944
sg62
(lp1951
g55
(g64
g57
NtRp1952
(dp1953
g60
(dp1954
g68
I4
ssg69
Nsg62
(lp1955
g55
(g71
g57
NtRp1956
(dp1957
g60
(dp1958
sg69
g1952
sg62
(lp1959
g55
(g76
g57
NtRp1960
(dp1961
g60
(dp1962
g80
g81
ssg69
g1956
sg62
(lp1963
S'environ'
p1964
asbag55
(g76
g57
NtRp1965
(dp1966
g60
(dp1967
g87
g88
ssg69
g1956
sg62
(lp1968
S':'
asbag55
(g76
g57
NtRp1969
(dp1970
g60
(dp1971
sg69
g1956
sg62
(lp1972
g55
(g56
g57
NtRp1973
(dp1974
g60
(dp1975
g68
I4
ssg69
g1969
sg62
(lp1976
g55
(g64
g57
NtRp1977
(dp1978
g60
(dp1979
g68
I3
ssg69
Nsg62
(lp1980
g55
(g71
g57
NtRp1981
(dp1982
g60
(dp1983
sg69
g1977
sg62
(lp1984
g55
(g76
g57
NtRp1985
(dp1986
g60
(dp1987
g80
g81
ssg69
g1981
sg62
(lp1988
S'HTTP_ACCEPT'
p1989
asbag55
(g76
g57
NtRp1990
(dp1991
g60
(dp1992
g87
g88
ssg69
g1981
sg62
(lp1993
S':'
asbag55
(g76
g57
NtRp1994
(dp1995
g60
(dp1996
sg69
g1981
sg62
(lp1997
g55
(g56
g57
NtRp1998
(dp1999
g60
(dp2000
g68
I3
ssg69
g1994
sg62
(lp2001
g1001
asbasbasbag55
(g71
g57
NtRp2002
(dp2003
g60
(dp2004
sg69
g1977
sg62
(lp2005
g55
(g76
g57
NtRp2006
(dp2007
g60
(dp2008
g80
g81
ssg69
g2002
sg62
(lp2009
S'HTTP_ACCEPT_CHARSET'
p2010
asbag55
(g76
g57
NtRp2011
(dp2012
g60
(dp2013
g87
g88
ssg69
g2002
sg62
(lp2014
S':'
asbag55
(g76
g57
NtRp2015
(dp2016
g60
(dp2017
sg69
g2002
sg62
(lp2018
g55
(g56
g57
NtRp2019
(dp2020
g60
(dp2021
g68
I3
ssg69
g2015
sg62
(lp2022
g1023
asbasbasbag55
(g71
g57
NtRp2023
(dp2024
g60
(dp2025
sg69
g1977
sg62
(lp2026
g55
(g76
g57
NtRp2027
(dp2028
g60
(dp2029
g80
g81
ssg69
g2023
sg62
(lp2030
S'HTTP_ACCEPT_ENCODING'
p2031
asbag55
(g76
g57
NtRp2032
(dp2033
g60
(dp2034
g87
g88
ssg69
g2023
sg62
(lp2035
S':'
asbag55
(g76
g57
NtRp2036
(dp2037
g60
(dp2038
sg69
g2023
sg62
(lp2039
g55
(g56
g57
NtRp2040
(dp2041
g60
(dp2042
g68
I3
ssg69
g2036
sg62
(lp2043
g1045
asbasbasbag55
(g71
g57
NtRp2044
(dp2045
g60
(dp2046
sg69
g1977
sg62
(lp2047
g55
(g76
g57
NtRp2048
(dp2049
g60
(dp2050
g80
g81
ssg69
g2044
sg62
(lp2051
S'HTTP_ACCEPT_LANGUAGE'
p2052
asbag55
(g76
g57
NtRp2053
(dp2054
g60
(dp2055
g87
g88
ssg69
g2044
sg62
(lp2056
S':'
asbag55
(g76
g57
NtRp2057
(dp2058
g60
(dp2059
sg69
g2044
sg62
(lp2060
g55
(g56
g57
NtRp2061
(dp2062
g60
(dp2063
g68
I3
ssg69
g2057
sg62
(lp2064
g1067
asbasbasbag55
(g71
g57
NtRp2065
(dp2066
g60
(dp2067
sg69
g1977
sg62
(lp2068
g55
(g76
g57
NtRp2069
(dp2070
g60
(dp2071
g80
g81
ssg69
g2065
sg62
(lp2072
S'HTTP_CACHE_CONTROL'
p2073
asbag55
(g76
g57
NtRp2074
(dp2075
g60
(dp2076
g87
g88
ssg69
g2065
sg62
(lp2077
S':'
asbag55
(g76
g57
NtRp2078
(dp2079
g60
(dp2080
sg69
g2065
sg62
(lp2081
g55
(g56
g57
NtRp2082
(dp2083
g60
(dp2084
g68
I3
ssg69
g2078
sg62
(lp2085
g1089
asbasbasbag55
(g71
g57
NtRp2086
(dp2087
g60
(dp2088
sg69
g1977
sg62
(lp2089
g55
(g76
g57
NtRp2090
(dp2091
g60
(dp2092
g80
g81
ssg69
g2086
sg62
(lp2093
S'HTTP_CONNECTION'
p2094
asbag55
(g76
g57
NtRp2095
(dp2096
g60
(dp2097
g87
g88
ssg69
g2086
sg62
(lp2098
S':'
asbag55
(g76
g57
NtRp2099
(dp2100
g60
(dp2101
sg69
g2086
sg62
(lp2102
g55
(g56
g57
NtRp2103
(dp2104
g60
(dp2105
g68
I3
ssg69
g2099
sg62
(lp2106
g1111
asbasbasbag55
(g71
g57
NtRp2107
(dp2108
g60
(dp2109
sg69
g1977
sg62
(lp2110
g55
(g76
g57
NtRp2111
(dp2112
g60
(dp2113
g80
g81
ssg69
g2107
sg62
(lp2114
S'HTTP_COOKIE'
p2115
asbag55
(g76
g57
NtRp2116
(dp2117
g60
(dp2118
g87
g88
ssg69
g2107
sg62
(lp2119
S':'
asbag55
(g76
g57
NtRp2120
(dp2121
g60
(dp2122
sg69
g2107
sg62
(lp2123
g55
(g56
g57
NtRp2124
(dp2125
g60
(dp2126
g68
I3
ssg69
g2120
sg62
(lp2127
g1133
asbasbasbag55
(g71
g57
NtRp2128
(dp2129
g60
(dp2130
sg69
g1977
sg62
(lp2131
g55
(g76
g57
NtRp2132
(dp2133
g60
(dp2134
g80
g81
ssg69
g2128
sg62
(lp2135
S'HTTP_HOST'
p2136
asbag55
(g76
g57
NtRp2137
(dp2138
g60
(dp2139
g87
g88
ssg69
g2128
sg62
(lp2140
S':'
asbag55
(g76
g57
NtRp2141
(dp2142
g60
(dp2143
sg69
g2128
sg62
(lp2144
g55
(g56
g57
NtRp2145
(dp2146
g60
(dp2147
g68
I3
ssg69
g2141
sg62
(lp2148
g1155
asbasbasbag55
(g71
g57
NtRp2149
(dp2150
g60
(dp2151
sg69
g1977
sg62
(lp2152
g55
(g76
g57
NtRp2153
(dp2154
g60
(dp2155
g80
g81
ssg69
g2149
sg62
(lp2156
S'HTTP_USER_AGENT'
p2157
asbag55
(g76
g57
NtRp2158
(dp2159
g60
(dp2160
g87
g88
ssg69
g2149
sg62
(lp2161
S':'
asbag55
(g76
g57
NtRp2162
(dp2163
g60
(dp2164
sg69
g2149
sg62
(lp2165
g55
(g56
g57
NtRp2166
(dp2167
g60
(dp2168
g68
I3
ssg69
g2162
sg62
(lp2169
g1177
asbasbasbag55
(g71
g57
NtRp2170
(dp2171
g60
(dp2172
sg69
g1977
sg62
(lp2173
g55
(g76
g57
NtRp2174
(dp2175
g60
(dp2176
g80
g81
ssg69
g2170
sg62
(lp2177
S'PATH_INFO'
p2178
asbag55
(g76
g57
NtRp2179
(dp2180
g60
(dp2181
g87
g88
ssg69
g2170
sg62
(lp2182
S':'
asbag55
(g76
g57
NtRp2183
(dp2184
g60
(dp2185
sg69
g2170
sg62
(lp2186
g55
(g56
g57
NtRp2187
(dp2188
g60
(dp2189
g68
I3
ssg69
g2183
sg62
(lp2190
g1199
asbasbasbag55
(g71
g57
NtRp2191
(dp2192
g60
(dp2193
sg69
g1977
sg62
(lp2194
g55
(g76
g57
NtRp2195
(dp2196
g60
(dp2197
g80
g81
ssg69
g2191
sg62
(lp2198
S'QUERY_STRING'
p2199
asbag55
(g76
g57
NtRp2200
(dp2201
g60
(dp2202
g87
g88
ssg69
g2191
sg62
(lp2203
S':'
asbag55
(g76
g57
NtRp2204
(dp2205
g60
(dp2206
sg69
g2191
sg62
(lp2207
g55
(g56
g57
NtRp2208
(dp2209
g60
(dp2210
g68
I3
ssg69
g2204
sg62
(lp2211
S''
asbasbasbag55
(g71
g57
NtRp2212
(dp2213
g60
(dp2214
sg69
g1977
sg62
(lp2215
g55
(g76
g57
NtRp2216
(dp2217
g60
(dp2218
g80
g81
ssg69
g2212
sg62
(lp2219
S'REMOTE_ADDR'
p2220
asbag55
(g76
g57
NtRp2221
(dp2222
g60
(dp2223
g87
g88
ssg69
g2212
sg62
(lp2224
S':'
asbag55
(g76
g57
NtRp2225
(dp2226
g60
(dp2227
sg69
g2212
sg62
(lp2228
g55
(g56
g57
NtRp2229
(dp2230
g60
(dp2231
g68
I3
ssg69
g2225
sg62
(lp2232
g188
asbasbasbag55
(g71
g57
NtRp2233
(dp2234
g60
(dp2235
sg69
g1977
sg62
(lp2236
g55
(g76
g57
NtRp2237
(dp2238
g60
(dp2239
g80
g81
ssg69
g2233
sg62
(lp2240
S'REMOTE_PORT'
p2241
asbag55
(g76
g57
NtRp2242
(dp2243
g60
(dp2244
g87
g88
ssg69
g2233
sg62
(lp2245
S':'
asbag55
(g76
g57
NtRp2246
(dp2247
g60
(dp2248
sg69
g2233
sg62
(lp2249
g55
(g56
g57
NtRp2250
(dp2251
g60
(dp2252
g68
I3
ssg69
g2246
sg62
(lp2253
g1263
asbasbasbag55
(g71
g57
NtRp2254
(dp2255
g60
(dp2256
sg69
g1977
sg62
(lp2257
g55
(g76
g57
NtRp2258
(dp2259
g60
(dp2260
g80
g81
ssg69
g2254
sg62
(lp2261
S'REQUEST_METHOD'
p2262
asbag55
(g76
g57
NtRp2263
(dp2264
g60
(dp2265
g87
g88
ssg69
g2254
sg62
(lp2266
S':'
asbag55
(g76
g57
NtRp2267
(dp2268
g60
(dp2269
sg69
g2254
sg62
(lp2270
g55
(g56
g57
NtRp2271
(dp2272
g60
(dp2273
g68
I3
ssg69
g2267
sg62
(lp2274
g1285
asbasbasbag55
(g71
g57
NtRp2275
(dp2276
g60
(dp2277
sg69
g1977
sg62
(lp2278
g55
(g76
g57
NtRp2279
(dp2280
g60
(dp2281
g80
g81
ssg69
g2275
sg62
(lp2282
S'REQUEST_URI'
p2283
asbag55
(g76
g57
NtRp2284
(dp2285
g60
(dp2286
g87
g88
ssg69
g2275
sg62
(lp2287
S':'
asbag55
(g76
g57
NtRp2288
(dp2289
g60
(dp2290
sg69
g2275
sg62
(lp2291
g55
(g56
g57
NtRp2292
(dp2293
g60
(dp2294
g68
I3
ssg69
g2288
sg62
(lp2295
g1199
asbasbasbag55
(g71
g57
NtRp2296
(dp2297
g60
(dp2298
sg69
g1977
sg62
(lp2299
g55
(g76
g57
NtRp2300
(dp2301
g60
(dp2302
g80
g81
ssg69
g2296
sg62
(lp2303
S'SCRIPT_NAME'
p2304
asbag55
(g76
g57
NtRp2305
(dp2306
g60
(dp2307
g87
g88
ssg69
g2296
sg62
(lp2308
S':'
asbag55
(g76
g57
NtRp2309
(dp2310
g60
(dp2311
sg69
g2296
sg62
(lp2312
g55
(g56
g57
NtRp2313
(dp2314
g60
(dp2315
g68
I3
ssg69
g2309
sg62
(lp2316
S''
asbasbasbag55
(g71
g57
NtRp2317
(dp2318
g60
(dp2319
sg69
g1977
sg62
(lp2320
g55
(g76
g57
NtRp2321
(dp2322
g60
(dp2323
g80
g81
ssg69
g2317
sg62
(lp2324
S'SERVER_NAME'
p2325
asbag55
(g76
g57
NtRp2326
(dp2327
g60
(dp2328
g87
g88
ssg69
g2317
sg62
(lp2329
S':'
asbag55
(g76
g57
NtRp2330
(dp2331
g60
(dp2332
sg69
g2317
sg62
(lp2333
g55
(g56
g57
NtRp2334
(dp2335
g60
(dp2336
g68
I3
ssg69
g2330
sg62
(lp2337
g1349
asbasbasbag55
(g71
g57
NtRp2338
(dp2339
g60
(dp2340
sg69
g1977
sg62
(lp2341
g55
(g76
g57
NtRp2342
(dp2343
g60
(dp2344
g80
g81
ssg69
g2338
sg62
(lp2345
S'SERVER_PORT'
p2346
asbag55
(g76
g57
NtRp2347
(dp2348
g60
(dp2349
g87
g88
ssg69
g2338
sg62
(lp2350
S':'
asbag55
(g76
g57
NtRp2351
(dp2352
g60
(dp2353
sg69
g2338
sg62
(lp2354
g55
(g56
g57
NtRp2355
(dp2356
g60
(dp2357
g68
I3
ssg69
g2351
sg62
(lp2358
g1371
asbasbasbag55
(g71
g57
NtRp2359
(dp2360
g60
(dp2361
sg69
g1977
sg62
(lp2362
g55
(g76
g57
NtRp2363
(dp2364
g60
(dp2365
g80
g81
ssg69
g2359
sg62
(lp2366
S'SERVER_PROTOCOL'
p2367
asbag55
(g76
g57
NtRp2368
(dp2369
g60
(dp2370
g87
g88
ssg69
g2359
sg62
(lp2371
S':'
asbag55
(g76
g57
NtRp2372
(dp2373
g60
(dp2374
sg69
g2359
sg62
(lp2375
g55
(g56
g57
NtRp2376
(dp2377
g60
(dp2378
g68
I3
ssg69
g2372
sg62
(lp2379
g1393
asbasbasbag55
(g71
g57
NtRp2380
(dp2381
g60
(dp2382
sg69
g1977
sg62
(lp2383
g55
(g76
g57
NtRp2384
(dp2385
g60
(dp2386
g80
g81
ssg69
g2380
sg62
(lp2387
S'SERVER_SOFTWARE'
p2388
asbag55
(g76
g57
NtRp2389
(dp2390
g60
(dp2391
g87
g88
ssg69
g2380
sg62
(lp2392
S':'
asbag55
(g76
g57
NtRp2393
(dp2394
g60
(dp2395
sg69
g2380
sg62
(lp2396
g55
(g56
g57
NtRp2397
(dp2398
g60
(dp2399
g68
I3
ssg69
g2393
sg62
(lp2400
g1415
asbasbasbag55
(g71
g57
NtRp2401
(dp2402
g60
(dp2403
sg69
g1977
sg62
(lp2404
g55
(g76
g57
NtRp2405
(dp2406
g60
(dp2407
g80
g81
ssg69
g2401
sg62
(lp2408
S'WEB2PY_ORIGINAL_URI'
p2409
asbag55
(g76
g57
NtRp2410
(dp2411
g60
(dp2412
g87
g88
ssg69
g2401
sg62
(lp2413
S':'
asbag55
(g76
g57
NtRp2414
(dp2415
g60
(dp2416
sg69
g2401
sg62
(lp2417
g55
(g56
g57
NtRp2418
(dp2419
g60
(dp2420
g68
I3
ssg69
g2414
sg62
(lp2421
g1199
asbasbasbag55
(g71
g57
NtRp2422
(dp2423
g60
(dp2424
sg69
g1977
sg62
(lp2425
g55
(g76
g57
NtRp2426
(dp2427
g60
(dp2428
g80
g81
ssg69
g2422
sg62
(lp2429
S'wsgi.errors'
p2430
asbag55
(g76
g57
NtRp2431
(dp2432
g60
(dp2433
g87
g88
ssg69
g2422
sg62
(lp2434
S':'
asbag55
(g76
g57
NtRp2435
(dp2436
g60
(dp2437
sg69
g2422
sg62
(lp2438
g55
(g56
g57
NtRp2439
(dp2440
g60
(dp2441
g68
I3
ssg69
g2435
sg62
(lp2442
S"<open file '<stderr>', mode 'w' at 0xb77b80d0>"
p2443
asbasbasbag55
(g71
g57
NtRp2444
(dp2445
g60
(dp2446
sg69
g1977
sg62
(lp2447
g55
(g76
g57
NtRp2448
(dp2449
g60
(dp2450
g80
g81
ssg69
g2444
sg62
(lp2451
S'wsgi.file_wrapper'
p2452
asbag55
(g76
g57
NtRp2453
(dp2454
g60
(dp2455
g87
g88
ssg69
g2444
sg62
(lp2456
S':'
asbag55
(g76
g57
NtRp2457
(dp2458
g60
(dp2459
sg69
g2444
sg62
(lp2460
g55
(g56
g57
NtRp2461
(dp2462
g60
(dp2463
g68
I3
ssg69
g2457
sg62
(lp2464
S'<class gluon.rocket.FileWrapper at 0x9d865cc>'
p2465
asbasbasbag55
(g71
g57
NtRp2466
(dp2467
g60
(dp2468
sg69
g1977
sg62
(lp2469
g55
(g76
g57
NtRp2470
(dp2471
g60
(dp2472
g80
g81
ssg69
g2466
sg62
(lp2473
S'wsgi.input'
p2474
asbag55
(g76
g57
NtRp2475
(dp2476
g60
(dp2477
g87
g88
ssg69
g2466
sg62
(lp2478
S':'
asbag55
(g76
g57
NtRp2479
(dp2480
g60
(dp2481
sg69
g2466
sg62
(lp2482
g55
(g56
g57
NtRp2483
(dp2484
g60
(dp2485
g68
I3
ssg69
g2479
sg62
(lp2486
S'<cStringIO.StringO object at 0xa5d37e0>'
p2487
asbasbasbag55
(g71
g57
NtRp2488
(dp2489
g60
(dp2490
sg69
g1977
sg62
(lp2491
g55
(g76
g57
NtRp2492
(dp2493
g60
(dp2494
g80
g81
ssg69
g2488
sg62
(lp2495
S'wsgi.multiprocess'
p2496
asbag55
(g76
g57
NtRp2497
(dp2498
g60
(dp2499
g87
g88
ssg69
g2488
sg62
(lp2500
S':'
asbag55
(g76
g57
NtRp2501
(dp2502
g60
(dp2503
sg69
g2488
sg62
(lp2504
g55
(g56
g57
NtRp2505
(dp2506
g60
(dp2507
g68
I3
ssg69
g2501
sg62
(lp2508
g98
asbasbasbag55
(g71
g57
NtRp2509
(dp2510
g60
(dp2511
sg69
g1977
sg62
(lp2512
g55
(g76
g57
NtRp2513
(dp2514
g60
(dp2515
g80
g81
ssg69
g2509
sg62
(lp2516
S'wsgi.multithread'
p2517
asbag55
(g76
g57
NtRp2518
(dp2519
g60
(dp2520
g87
g88
ssg69
g2509
sg62
(lp2521
S':'
asbag55
(g76
g57
NtRp2522
(dp2523
g60
(dp2524
sg69
g2509
sg62
(lp2525
g55
(g56
g57
NtRp2526
(dp2527
g60
(dp2528
g68
I3
ssg69
g2522
sg62
(lp2529
g1610
asbasbasbag55
(g71
g57
NtRp2530
(dp2531
g60
(dp2532
sg69
g1977
sg62
(lp2533
g55
(g76
g57
NtRp2534
(dp2535
g60
(dp2536
g80
g81
ssg69
g2530
sg62
(lp2537
S'wsgi.run_once'
p2538
asbag55
(g76
g57
NtRp2539
(dp2540
g60
(dp2541
g87
g88
ssg69
g2530
sg62
(lp2542
S':'
asbag55
(g76
g57
NtRp2543
(dp2544
g60
(dp2545
sg69
g2530
sg62
(lp2546
g55
(g56
g57
NtRp2547
(dp2548
g60
(dp2549
g68
I3
ssg69
g2543
sg62
(lp2550
g98
asbasbasbag55
(g71
g57
NtRp2551
(dp2552
g60
(dp2553
sg69
g1977
sg62
(lp2554
g55
(g76
g57
NtRp2555
(dp2556
g60
(dp2557
g80
g81
ssg69
g2551
sg62
(lp2558
S'wsgi.url_scheme'
p2559
asbag55
(g76
g57
NtRp2560
(dp2561
g60
(dp2562
g87
g88
ssg69
g2551
sg62
(lp2563
S':'
asbag55
(g76
g57
NtRp2564
(dp2565
g60
(dp2566
sg69
g2551
sg62
(lp2567
g55
(g56
g57
NtRp2568
(dp2569
g60
(dp2570
g68
I3
ssg69
g2564
sg62
(lp2571
g1653
asbasbasbag55
(g71
g57
NtRp2572
(dp2573
g60
(dp2574
sg69
g1977
sg62
(lp2575
g55
(g76
g57
NtRp2576
(dp2577
g60
(dp2578
g80
g81
ssg69
g2572
sg62
(lp2579
S'wsgi.version'
p2580
asbag55
(g76
g57
NtRp2581
(dp2582
g60
(dp2583
g87
g88
ssg69
g2572
sg62
(lp2584
S':'
asbag55
(g76
g57
NtRp2585
(dp2586
g60
(dp2587
sg69
g2572
sg62
(lp2588
g55
(g56
g57
NtRp2589
(dp2590
g60
(dp2591
g68
I3
ssg69
g2585
sg62
(lp2592
S'1'
asbasbasbasbasbasbasbasbasbasbasbasbasbsS'frames'
p2593
(lp2594
(dp2595
S'file'
p2596
S'/home/raygomez/web2py/gluon/main.py'
p2597
sS'dump'
p2598
(dp2599
S'global serve_controller'
p2600
S'<function serve_controller>'
p2601
sS'session'
p2602
S"<Storage {'_Session__hash': '\\xc8[\\xd5\\xc1#\\xd8e\\x10\\xe3\\x06\\x0ba\\xddT\\x92m'}>"
p2603
sS'request'
p2604
S"<Storage {'function': 'index', 'body': <cStringI....09-39-10.467058dc-b2cf-48bd-9458-69e764c7afcc'}>"
p2605
sS'response'
p2606
S"<Storage {'status': 200, 'body': <cStringIO.Stri...der', 'files': [], 'view': 'default/index.html'}>"
p2607
ssS'lnum'
p2608
I466
sS'lines'
p2609
(dp2610
I461
S''
sI462
S'                # ##################################################'
p2611
sI463
S'                # run controller'
p2612
sI464
S'                # ##################################################'
p2613
sI465
S''
sI466
S'                serve_controller(request, response, session)'
p2614
sI467
S''
sI468
S'            except HTTP, http_response:'
p2615
sI469
S'                if static_file:'
p2616
sI470
S'                    return http_response.to(responder)'
p2617
ssS'call'
p2618
S"(environ={'HTTP_ACCEPT': 'application/xml,application/xhtml+xml,text/html;q=0.9,text/plain;q=0.8,image/png,*/*;q=0.5', 'HTTP_ACCEPT_CHARSET': 'ISO-8859-1,utf-8;q=0.7,*;q=0.3', 'HTTP_ACCEPT_ENCODING': 'gzip,deflate,sdch', 'HTTP_ACCEPT_LANGUAGE': 'en,es;q=0.8,en-US;q=0.6', 'HTTP_CACHE_CONTROL': 'max-age=0', 'HTTP_CONNECTION': 'keep-alive', 'HTTP_COOKIE': 'session_id_msghandler=127.0.0.1-019d8e16-9c38-41...in=127.0.0.1-385eb62a-7ea8-4559-87a5-b70e60a75202', 'HTTP_HOST': 'localhost:8000', 'HTTP_USER_AGENT': 'Mozilla/5.0 (X11; Linux i686) AppleWebKit/534.24...mium/11.0.696.68 Chrome/11.0.696.68 Safari/534.24', 'PATH_INFO': '/ge_finder/default/index', ...}, responder=<function responder2>)"
p2619
sS'func'
p2620
S'wsgibase'
p2621
sa(dp2622
g2596
S'/home/raygomez/web2py/gluon/main.py'
p2623
sg2598
(dp2624
S'environment'
p2625
S"{'A': <class 'gluon.html.A'>, 'B': <class 'gluon.html.B'>, 'BEAUTIFY': <class 'gluon.html.BEAUTIFY'>, 'BODY': <class 'gluon.html.BODY'>, 'BR': <class 'gluon.html.BR'>, 'CENTER': <class 'gluon.html.CENTER'>, 'CLEANUP': <class 'gluon.validators.CLEANUP'>, 'CODE': <class 'gluon.html.CODE'>, 'CRYPT': <class 'gluon.validators.CRYPT'>, 'DAL': <class 'gluon.dal.DAL'>, ...}"
p2626
sS'global run_models_in'
p2627
S'<function run_models_in>'
p2628
ssg2608
I199
sg2609
(dp2629
I194
S'    # also, make sure the flash is passed through'
p2630
sI195
S'    # ##################################################'
p2631
sI196
S'    # process models, controller and view (if required)'
p2632
sI197
S'    # ##################################################'
p2633
sI198
S''
sI199
S'    run_models_in(environment)'
p2634
sI200
S'    response._view_environment = copy.copy(environment)'
p2635
sI201
S'    page = run_controller_in(request.controller, request.function, environment)'
p2636
sI202
S'    if isinstance(page, dict):'
p2637
sI203
S'        response._vars = page'
p2638
ssg2618
S"(request=<Storage {'function': 'index', 'body': <cStringI....09-39-10.467058dc-b2cf-48bd-9458-69e764c7afcc'}>, response=<Storage {'status': 200, 'body': <cStringIO.Stri...der', 'files': [], 'view': 'default/index.html'}>, session=<Storage {'_Session__hash': '\\xc8[\\xd5\\xc1#\\xd8e\\x10\\xe3\\x06\\x0ba\\xddT\\x92m'}>)"
p2639
sg2620
S'serve_controller'
p2640
sa(dp2641
g2596
S'/home/raygomez/web2py/gluon/compileapp.py'
p2642
sg2598
(dp2643
S'environment'
p2644
S"{'A': <class 'gluon.html.A'>, 'B': <class 'gluon.html.B'>, 'BEAUTIFY': <class 'gluon.html.BEAUTIFY'>, 'BODY': <class 'gluon.html.BODY'>, 'BR': <class 'gluon.html.BR'>, 'CENTER': <class 'gluon.html.CENTER'>, 'CLEANUP': <class 'gluon.validators.CLEANUP'>, 'CODE': <class 'gluon.html.CODE'>, 'CRYPT': <class 'gluon.validators.CRYPT'>, 'DAL': <class 'gluon.dal.DAL'>, ...}"
p2645
sS'model'
p2646
S"'/home/raygomez/web2py/applications/ge_finder/compiled/models_db.pyc'"
p2647
sS'global restricted'
p2648
S'<function restricted>'
p2649
sS'layer'
p2650
S'undefined'
p2651
sS'global read_pyc'
p2652
S'<function read_pyc>'
p2653
ssg2608
I337
sg2609
(dp2654
I332
S''
sI333
S"    folder = environment['request'].folder"
p2655
sI334
S"    path = os.path.join(folder, 'compiled')"
p2656
sI335
S'    if os.path.exists(path):'
p2657
sI336
S"        for model in listdir(path, '^models_.+\\.pyc$', 0):"
p2658
sI337
S'            restricted(read_pyc(model), environment, layer=model)'
p2659
sI338
S'    else:'
p2660
sI339
S"        models = listdir(os.path.join(folder, 'models'), '^\\w+\\.py$',"
p2661
sI340
S'                         0)'
p2662
sI341
S'        for model in models:'
p2663
ssg2618
S"(environment={'A': <class 'gluon.html.A'>, 'B': <class 'gluon.html.B'>, 'BEAUTIFY': <class 'gluon.html.BEAUTIFY'>, 'BODY': <class 'gluon.html.BODY'>, 'BR': <class 'gluon.html.BR'>, 'CENTER': <class 'gluon.html.CENTER'>, 'CLEANUP': <class 'gluon.validators.CLEANUP'>, 'CODE': <class 'gluon.html.CODE'>, 'CRYPT': <class 'gluon.validators.CRYPT'>, 'DAL': <class 'gluon.dal.DAL'>, ...})"
p2664
sg2620
S'run_models_in'
p2665
sa(dp2666
g2596
S'/home/raygomez/web2py/gluon/compileapp.py'
p2667
sg2598
(dp2668
S'builtinSystemError'
p2669
S"<type 'exceptions.SystemError'>"
p2670
ssg2608
I262
sg2609
(dp2671
I257
S'    """'
p2672
sI258
S"    fp = open(filename, 'rb')"
p2673
sI259
S'    data = fp.read()'
p2674
sI260
S'    fp.close()'
p2675
sI261
S'    if not is_gae and data[:4] != imp.get_magic():'
p2676
sI262
S"        raise SystemError, 'compiled code is incompatible'"
p2677
sI263
S'    return marshal.loads(data[8:])'
p2678
sI264
S''
sI265
S''
sI266
S'def compile_views(folder):'
p2679
ssg2618
S"(filename='/home/raygomez/web2py/applications/ge_finder/compiled/models_db.pyc')"
p2680
sg2620
S'read_pyc'
p2681
sasS'pyver'
p2682
S'Python 2.7.1+: /usr/bin/python'
p2683
sS'session'
p2684
g55
(g56
g57
NtRp2685
(dp2686
g60
(dp2687
sg62
(lp2688
g55
(g64
g57
NtRp2689
(dp2690
g60
(dp2691
g68
I5
ssg69
Nsg62
(lp2692
sbasbsS'etype'
p2693
S"<type 'exceptions.SystemError'>"
p2694
sS'date'
p2695
S'Mon May 23 09:39:10 2011'
p2696
sS'response'
p2697
g55
(g56
g57
NtRp2698
(dp2699
g60
(dp2700
sg62
(lp2701
g55
(g64
g57
NtRp2702
(dp2703
g60
(dp2704
g68
I5
ssg69
Nsg62
(lp2705
g55
(g71
g57
NtRp2706
(dp2707
g60
(dp2708
sg69
g2702
sg62
(lp2709
g55
(g76
g57
NtRp2710
(dp2711
g60
(dp2712
g80
g81
ssg69
g2706
sg62
(lp2713
g153
asbag55
(g76
g57
NtRp2714
(dp2715
g60
(dp2716
g87
g88
ssg69
g2706
sg62
(lp2717
S':'
asbag55
(g76
g57
NtRp2718
(dp2719
g60
(dp2720
sg69
g2706
sg62
(lp2721
g55
(g56
g57
NtRp2722
(dp2723
g60
(dp2724
g68
I5
ssg69
g2718
sg62
(lp2725
S'<cStringIO.StringO object at 0xbfb15c0>'
p2726
asbasbasbag55
(g71
g57
NtRp2727
(dp2728
g60
(dp2729
sg69
g2702
sg62
(lp2730
g55
(g76
g57
NtRp2731
(dp2732
g60
(dp2733
g80
g81
ssg69
g2727
sg62
(lp2734
g219
asbag55
(g76
g57
NtRp2735
(dp2736
g60
(dp2737
g87
g88
ssg69
g2727
sg62
(lp2738
S':'
asbag55
(g76
g57
NtRp2739
(dp2740
g60
(dp2741
sg69
g2727
sg62
(lp2742
g55
(g56
g57
NtRp2743
(dp2744
g60
(dp2745
g68
I5
ssg69
g2739
sg62
(lp2746
g55
(g64
g57
NtRp2747
(dp2748
g60
(dp2749
g68
I4
ssg69
Nsg62
(lp2750
g55
(g71
g57
NtRp2751
(dp2752
g60
(dp2753
sg69
g2747
sg62
(lp2754
g55
(g76
g57
NtRp2755
(dp2756
g60
(dp2757
g80
g81
ssg69
g2751
sg62
(lp2758
S'session_id_ge_finder'
p2759
asbag55
(g76
g57
NtRp2760
(dp2761
g60
(dp2762
g87
g88
ssg69
g2751
sg62
(lp2763
S':'
asbag55
(g76
g57
NtRp2764
(dp2765
g60
(dp2766
sg69
g2751
sg62
(lp2767
g55
(g56
g57
NtRp2768
(dp2769
g60
(dp2770
g68
I4
ssg69
g2764
sg62
(lp2771
g55
(g64
g57
NtRp2772
(dp2773
g60
(dp2774
g68
I3
ssg69
Nsg62
(lp2775
g55
(g71
g57
NtRp2776
(dp2777
g60
(dp2778
sg69
g2772
sg62
(lp2779
g55
(g76
g57
NtRp2780
(dp2781
g60
(dp2782
g80
g81
ssg69
g2776
sg62
(lp2783
g269
asbag55
(g76
g57
NtRp2784
(dp2785
g60
(dp2786
g87
g88
ssg69
g2776
sg62
(lp2787
S':'
asbag55
(g76
g57
NtRp2788
(dp2789
g60
(dp2790
sg69
g2776
sg62
(lp2791
g55
(g56
g57
NtRp2792
(dp2793
g60
(dp2794
g68
I3
ssg69
g2788
sg62
(lp2795
S''
asbasbasbag55
(g71
g57
NtRp2796
(dp2797
g60
(dp2798
sg69
g2772
sg62
(lp2799
g55
(g76
g57
NtRp2800
(dp2801
g60
(dp2802
g80
g81
ssg69
g2796
sg62
(lp2803
g290
asbag55
(g76
g57
NtRp2804
(dp2805
g60
(dp2806
g87
g88
ssg69
g2796
sg62
(lp2807
S':'
asbag55
(g76
g57
NtRp2808
(dp2809
g60
(dp2810
sg69
g2796
sg62
(lp2811
g55
(g56
g57
NtRp2812
(dp2813
g60
(dp2814
g68
I3
ssg69
g2808
sg62
(lp2815
S''
asbasbasbag55
(g71
g57
NtRp2816
(dp2817
g60
(dp2818
sg69
g2772
sg62
(lp2819
g55
(g76
g57
NtRp2820
(dp2821
g60
(dp2822
g80
g81
ssg69
g2816
sg62
(lp2823
g311
asbag55
(g76
g57
NtRp2824
(dp2825
g60
(dp2826
g87
g88
ssg69
g2816
sg62
(lp2827
S':'
asbag55
(g76
g57
NtRp2828
(dp2829
g60
(dp2830
sg69
g2816
sg62
(lp2831
g55
(g56
g57
NtRp2832
(dp2833
g60
(dp2834
g68
I3
ssg69
g2828
sg62
(lp2835
S''
asbasbasbag55
(g71
g57
NtRp2836
(dp2837
g60
(dp2838
sg69
g2772
sg62
(lp2839
g55
(g76
g57
NtRp2840
(dp2841
g60
(dp2842
g80
g81
ssg69
g2836
sg62
(lp2843
g332
asbag55
(g76
g57
NtRp2844
(dp2845
g60
(dp2846
g87
g88
ssg69
g2836
sg62
(lp2847
S':'
asbag55
(g76
g57
NtRp2848
(dp2849
g60
(dp2850
sg69
g2836
sg62
(lp2851
g55
(g56
g57
NtRp2852
(dp2853
g60
(dp2854
g68
I3
ssg69
g2848
sg62
(lp2855
S''
asbasbasbag55
(g71
g57
NtRp2856
(dp2857
g60
(dp2858
sg69
g2772
sg62
(lp2859
g55
(g76
g57
NtRp2860
(dp2861
g60
(dp2862
g80
g81
ssg69
g2856
sg62
(lp2863
g353
asbag55
(g76
g57
NtRp2864
(dp2865
g60
(dp2866
g87
g88
ssg69
g2856
sg62
(lp2867
S':'
asbag55
(g76
g57
NtRp2868
(dp2869
g60
(dp2870
sg69
g2856
sg62
(lp2871
g55
(g56
g57
NtRp2872
(dp2873
g60
(dp2874
g68
I3
ssg69
g2868
sg62
(lp2875
S''
asbasbasbag55
(g71
g57
NtRp2876
(dp2877
g60
(dp2878
sg69
g2772
sg62
(lp2879
g55
(g76
g57
NtRp2880
(dp2881
g60
(dp2882
g80
g81
ssg69
g2876
sg62
(lp2883
g374
asbag55
(g76
g57
NtRp2884
(dp2885
g60
(dp2886
g87
g88
ssg69
g2876
sg62
(lp2887
S':'
asbag55
(g76
g57
NtRp2888
(dp2889
g60
(dp2890
sg69
g2876
sg62
(lp2891
g55
(g56
g57
NtRp2892
(dp2893
g60
(dp2894
g68
I3
ssg69
g2888
sg62
(lp2895
S'/'
asbasbasbag55
(g71
g57
NtRp2896
(dp2897
g60
(dp2898
sg69
g2772
sg62
(lp2899
g55
(g76
g57
NtRp2900
(dp2901
g60
(dp2902
g80
g81
ssg69
g2896
sg62
(lp2903
g395
asbag55
(g76
g57
NtRp2904
(dp2905
g60
(dp2906
g87
g88
ssg69
g2896
sg62
(lp2907
S':'
asbag55
(g76
g57
NtRp2908
(dp2909
g60
(dp2910
sg69
g2896
sg62
(lp2911
g55
(g56
g57
NtRp2912
(dp2913
g60
(dp2914
g68
I3
ssg69
g2908
sg62
(lp2915
S''
asbasbasbag55
(g71
g57
NtRp2916
(dp2917
g60
(dp2918
sg69
g2772
sg62
(lp2919
g55
(g76
g57
NtRp2920
(dp2921
g60
(dp2922
g80
g81
ssg69
g2916
sg62
(lp2923
g416
asbag55
(g76
g57
NtRp2924
(dp2925
g60
(dp2926
g87
g88
ssg69
g2916
sg62
(lp2927
S':'
asbag55
(g76
g57
NtRp2928
(dp2929
g60
(dp2930
sg69
g2916
sg62
(lp2931
g55
(g56
g57
NtRp2932
(dp2933
g60
(dp2934
g68
I3
ssg69
g2928
sg62
(lp2935
S''
asbasbasbasbasbasbasbasbasbasbasbag55
(g71
g57
NtRp2936
(dp2937
g60
(dp2938
sg69
g2702
sg62
(lp2939
g55
(g76
g57
NtRp2940
(dp2941
g60
(dp2942
g80
g81
ssg69
g2936
sg62
(lp2943
S'files'
p2944
asbag55
(g76
g57
NtRp2945
(dp2946
g60
(dp2947
g87
g88
ssg69
g2936
sg62
(lp2948
S':'
asbag55
(g76
g57
NtRp2949
(dp2950
g60
(dp2951
sg69
g2936
sg62
(lp2952
g55
(g56
g57
NtRp2953
(dp2954
g60
(dp2955
g68
I5
ssg69
g2949
sg62
(lp2956
g55
(g64
g57
NtRp2957
(dp2958
g60
(dp2959
g68
I4
ssg69
Nsg62
(lp2960
sbasbasbasbag55
(g71
g57
NtRp2961
(dp2962
g60
(dp2963
sg69
g2702
sg62
(lp2964
g55
(g76
g57
NtRp2965
(dp2966
g60
(dp2967
g80
g81
ssg69
g2961
sg62
(lp2968
S'flash'
p2969
asbag55
(g76
g57
NtRp2970
(dp2971
g60
(dp2972
g87
g88
ssg69
g2961
sg62
(lp2973
S':'
asbag55
(g76
g57
NtRp2974
(dp2975
g60
(dp2976
sg69
g2961
sg62
(lp2977
g55
(g56
g57
NtRp2978
(dp2979
g60
(dp2980
g68
I5
ssg69
g2974
sg62
(lp2981
S''
asbasbasbag55
(g71
g57
NtRp2982
(dp2983
g60
(dp2984
sg69
g2702
sg62
(lp2985
g55
(g76
g57
NtRp2986
(dp2987
g60
(dp2988
g80
g81
ssg69
g2982
sg62
(lp2989
S'headers'
p2990
asbag55
(g76
g57
NtRp2991
(dp2992
g60
(dp2993
g87
g88
ssg69
g2982
sg62
(lp2994
S':'
asbag55
(g76
g57
NtRp2995
(dp2996
g60
(dp2997
sg69
g2982
sg62
(lp2998
g55
(g56
g57
NtRp2999
(dp3000
g60
(dp3001
g68
I5
ssg69
g2995
sg62
(lp3002
g55
(g64
g57
NtRp3003
(dp3004
g60
(dp3005
g68
I4
ssg69
Nsg62
(lp3006
g55
(g71
g57
NtRp3007
(dp3008
g60
(dp3009
sg69
g3003
sg62
(lp3010
g55
(g76
g57
NtRp3011
(dp3012
g60
(dp3013
g80
g81
ssg69
g3007
sg62
(lp3014
S'Cache-Control'
p3015
asbag55
(g76
g57
NtRp3016
(dp3017
g60
(dp3018
g87
g88
ssg69
g3007
sg62
(lp3019
S':'
asbag55
(g76
g57
NtRp3020
(dp3021
g60
(dp3022
sg69
g3007
sg62
(lp3023
g55
(g56
g57
NtRp3024
(dp3025
g60
(dp3026
g68
I4
ssg69
g3020
sg62
(lp3027
S'no-store, no-cache, must-revalidate, post-check=0, pre-check=0'
p3028
asbasbasbag55
(g71
g57
NtRp3029
(dp3030
g60
(dp3031
sg69
g3003
sg62
(lp3032
g55
(g76
g57
NtRp3033
(dp3034
g60
(dp3035
g80
g81
ssg69
g3029
sg62
(lp3036
S'Content-Type'
p3037
asbag55
(g76
g57
NtRp3038
(dp3039
g60
(dp3040
g87
g88
ssg69
g3029
sg62
(lp3041
S':'
asbag55
(g76
g57
NtRp3042
(dp3043
g60
(dp3044
sg69
g3029
sg62
(lp3045
g55
(g56
g57
NtRp3046
(dp3047
g60
(dp3048
g68
I4
ssg69
g3042
sg62
(lp3049
S'text/html; charset=utf-8'
p3050
asbasbasbag55
(g71
g57
NtRp3051
(dp3052
g60
(dp3053
sg69
g3003
sg62
(lp3054
g55
(g76
g57
NtRp3055
(dp3056
g60
(dp3057
g80
g81
ssg69
g3051
sg62
(lp3058
S'Expires'
p3059
asbag55
(g76
g57
NtRp3060
(dp3061
g60
(dp3062
g87
g88
ssg69
g3051
sg62
(lp3063
S':'
asbag55
(g76
g57
NtRp3064
(dp3065
g60
(dp3066
sg69
g3051
sg62
(lp3067
g55
(g56
g57
NtRp3068
(dp3069
g60
(dp3070
g68
I4
ssg69
g3064
sg62
(lp3071
S'Mon, 23 May 2011 01:39:10 GMT'
p3072
asbasbasbag55
(g71
g57
NtRp3073
(dp3074
g60
(dp3075
sg69
g3003
sg62
(lp3076
g55
(g76
g57
NtRp3077
(dp3078
g60
(dp3079
g80
g81
ssg69
g3073
sg62
(lp3080
S'Pragma'
p3081
asbag55
(g76
g57
NtRp3082
(dp3083
g60
(dp3084
g87
g88
ssg69
g3073
sg62
(lp3085
S':'
asbag55
(g76
g57
NtRp3086
(dp3087
g60
(dp3088
sg69
g3073
sg62
(lp3089
g55
(g56
g57
NtRp3090
(dp3091
g60
(dp3092
g68
I4
ssg69
g3086
sg62
(lp3093
S'no-cache'
p3094
asbasbasbasbasbasbasbag55
(g71
g57
NtRp3095
(dp3096
g60
(dp3097
sg69
g2702
sg62
(lp3098
g55
(g76
g57
NtRp3099
(dp3100
g60
(dp3101
g80
g81
ssg69
g3095
sg62
(lp3102
S'menu'
p3103
asbag55
(g76
g57
NtRp3104
(dp3105
g60
(dp3106
g87
g88
ssg69
g3095
sg62
(lp3107
S':'
asbag55
(g76
g57
NtRp3108
(dp3109
g60
(dp3110
sg69
g3095
sg62
(lp3111
g55
(g56
g57
NtRp3112
(dp3113
g60
(dp3114
g68
I5
ssg69
g3108
sg62
(lp3115
g55
(g64
g57
NtRp3116
(dp3117
g60
(dp3118
g68
I4
ssg69
Nsg62
(lp3119
sbasbasbasbag55
(g71
g57
NtRp3120
(dp3121
g60
(dp3122
sg69
g2702
sg62
(lp3123
g55
(g76
g57
NtRp3124
(dp3125
g60
(dp3126
g80
g81
ssg69
g3120
sg62
(lp3127
S'meta'
p3128
asbag55
(g76
g57
NtRp3129
(dp3130
g60
(dp3131
g87
g88
ssg69
g3120
sg62
(lp3132
S':'
asbag55
(g76
g57
NtRp3133
(dp3134
g60
(dp3135
sg69
g3120
sg62
(lp3136
g55
(g56
g57
NtRp3137
(dp3138
g60
(dp3139
g68
I5
ssg69
g3133
sg62
(lp3140
g55
(g64
g57
NtRp3141
(dp3142
g60
(dp3143
g68
I4
ssg69
Nsg62
(lp3144
sbasbasbasbag55
(g71
g57
NtRp3145
(dp3146
g60
(dp3147
sg69
g2702
sg62
(lp3148
g55
(g76
g57
NtRp3149
(dp3150
g60
(dp3151
g80
g81
ssg69
g3145
sg62
(lp3152
S'postprocessing'
p3153
asbag55
(g76
g57
NtRp3154
(dp3155
g60
(dp3156
g87
g88
ssg69
g3145
sg62
(lp3157
S':'
asbag55
(g76
g57
NtRp3158
(dp3159
g60
(dp3160
sg69
g3145
sg62
(lp3161
g55
(g56
g57
NtRp3162
(dp3163
g60
(dp3164
g68
I5
ssg69
g3158
sg62
(lp3165
g55
(g64
g57
NtRp3166
(dp3167
g60
(dp3168
g68
I4
ssg69
Nsg62
(lp3169
sbasbasbasbag55
(g71
g57
NtRp3170
(dp3171
g60
(dp3172
sg69
g2702
sg62
(lp3173
g55
(g76
g57
NtRp3174
(dp3175
g60
(dp3176
g80
g81
ssg69
g3170
sg62
(lp3177
S'session_filename'
p3178
asbag55
(g76
g57
NtRp3179
(dp3180
g60
(dp3181
g87
g88
ssg69
g3170
sg62
(lp3182
S':'
asbag55
(g76
g57
NtRp3183
(dp3184
g60
(dp3185
sg69
g3170
sg62
(lp3186
g55
(g56
g57
NtRp3187
(dp3188
g60
(dp3189
g68
I5
ssg69
g3183
sg62
(lp3190
S'/home/raygomez/web2py/applications/ge_finder/sessions/127.0.0.1-3cd5821a-bbe5-42cf-9009-79fa13de61f1'
p3191
asbasbasbag55
(g71
g57
NtRp3192
(dp3193
g60
(dp3194
sg69
g2702
sg62
(lp3195
g55
(g76
g57
NtRp3196
(dp3197
g60
(dp3198
g80
g81
ssg69
g3192
sg62
(lp3199
S'session_id'
p3200
asbag55
(g76
g57
NtRp3201
(dp3202
g60
(dp3203
g87
g88
ssg69
g3192
sg62
(lp3204
S':'
asbag55
(g76
g57
NtRp3205
(dp3206
g60
(dp3207
sg69
g3192
sg62
(lp3208
g55
(g56
g57
NtRp3209
(dp3210
g60
(dp3211
g68
I5
ssg69
g3205
sg62
(lp3212
S'127.0.0.1-3cd5821a-bbe5-42cf-9009-79fa13de61f1'
p3213
asbasbasbag55
(g71
g57
NtRp3214
(dp3215
g60
(dp3216
sg69
g2702
sg62
(lp3217
g55
(g76
g57
NtRp3218
(dp3219
g60
(dp3220
g80
g81
ssg69
g3214
sg62
(lp3221
S'session_id_name'
p3222
asbag55
(g76
g57
NtRp3223
(dp3224
g60
(dp3225
g87
g88
ssg69
g3214
sg62
(lp3226
S':'
asbag55
(g76
g57
NtRp3227
(dp3228
g60
(dp3229
sg69
g3214
sg62
(lp3230
g55
(g56
g57
NtRp3231
(dp3232
g60
(dp3233
g68
I5
ssg69
g3227
sg62
(lp3234
g2759
asbasbasbag55
(g71
g57
NtRp3235
(dp3236
g60
(dp3237
sg69
g2702
sg62
(lp3238
g55
(g76
g57
NtRp3239
(dp3240
g60
(dp3241
g80
g81
ssg69
g3235
sg62
(lp3242
S'session_new'
p3243
asbag55
(g76
g57
NtRp3244
(dp3245
g60
(dp3246
g87
g88
ssg69
g3235
sg62
(lp3247
S':'
asbag55
(g76
g57
NtRp3248
(dp3249
g60
(dp3250
sg69
g3235
sg62
(lp3251
g55
(g56
g57
NtRp3252
(dp3253
g60
(dp3254
g68
I5
ssg69
g3248
sg62
(lp3255
g1610
asbasbasbag55
(g71
g57
NtRp3256
(dp3257
g60
(dp3258
sg69
g2702
sg62
(lp3259
g55
(g76
g57
NtRp3260
(dp3261
g60
(dp3262
g80
g81
ssg69
g3256
sg62
(lp3263
S'status'
p3264
asbag55
(g76
g57
NtRp3265
(dp3266
g60
(dp3267
g87
g88
ssg69
g3256
sg62
(lp3268
S':'
asbag55
(g76
g57
NtRp3269
(dp3270
g60
(dp3271
sg69
g3256
sg62
(lp3272
g55
(g56
g57
NtRp3273
(dp3274
g60
(dp3275
g68
I5
ssg69
g3269
sg62
(lp3276
S'200'
p3277
asbasbasbag55
(g71
g57
NtRp3278
(dp3279
g60
(dp3280
sg69
g2702
sg62
(lp3281
g55
(g76
g57
NtRp3282
(dp3283
g60
(dp3284
g80
g81
ssg69
g3278
sg62
(lp3285
g1892
asbag55
(g76
g57
NtRp3286
(dp3287
g60
(dp3288
g87
g88
ssg69
g3278
sg62
(lp3289
S':'
asbag55
(g76
g57
NtRp3290
(dp3291
g60
(dp3292
sg69
g3278
sg62
(lp3293
g55
(g56
g57
NtRp3294
(dp3295
g60
(dp3296
g68
I5
ssg69
g3290
sg62
(lp3297
g1905
asbasbasbag55
(g71
g57
NtRp3298
(dp3299
g60
(dp3300
sg69
g2702
sg62
(lp3301
g55
(g76
g57
NtRp3302
(dp3303
g60
(dp3304
g80
g81
ssg69
g3298
sg62
(lp3305
S'view'
p3306
asbag55
(g76
g57
NtRp3307
(dp3308
g60
(dp3309
g87
g88
ssg69
g3298
sg62
(lp3310
S':'
asbag55
(g76
g57
NtRp3311
(dp3312
g60
(dp3313
sg69
g3298
sg62
(lp3314
g55
(g56
g57
NtRp3315
(dp3316
g60
(dp3317
g68
I5
ssg69
g3311
sg62
(lp3318
S'default/index.html'
p3319
asbasbasbasbasbsS'locals'
p3320
(dp3321
S'fp'
p3322
S"<closed file '/home/raygomez/web2py/applications/ge_finder/compiled/models_db.pyc', mode 'rb'>"
p3323
sS'data'
p3324
S"'\\xd1\\xf2\\r\\n\\xd3\\x88\\xd1Mc\\x00\\x00\\x00\\x00\\x00\\x00\\x00\\x00\\x07\\x00\\x00\\x00@\\x00\\x00\\x00so\\x01\\x00\\x00e\\x00\\x00i\\x01\\x00i\\x02\\x00o&\\x00\\x01e\\x03\\x00d\\x00...\\x00\\x00s*\\x00\\x00\\x00\\r\\x01\\x0c\\x02\\x1a\\x06\\x0c\\x0e\\n\\x01\\t\\x01\\x12\\x01\\x12\\x01\\x0f\\x01\\t\\x02\\x13\\x01\\x0c\\x01\\x0c\\x02\\x0c\\x01\\n\\x01\\x0c\\x01\\x0c\\x01\\x0c\\x010\\x01\\x0c\\x010\\x0c'"
p3325
sS'filename'
p3326
S"'/home/raygomez/web2py/applications/ge_finder/compiled/models_db.pyc'"
p3327
sssS'traceback'
p3328
S'Traceback (most recent call last):\n  File "/home/raygomez/web2py/gluon/main.py", line 466, in wsgibase\n    serve_controller(request, response, session)\n  File "/home/raygomez/web2py/gluon/main.py", line 199, in serve_controller\n    run_models_in(environment)\n  File "/home/raygomez/web2py/gluon/compileapp.py", line 337, in run_models_in\n    restricted(read_pyc(model), environment, layer=model)\n  File "/home/raygomez/web2py/gluon/compileapp.py", line 262, in read_pyc\n    raise SystemError, \'compiled code is incompatible\'\nSystemError: compiled code is incompatible\n'
p3329
s.