(dp1
S'output'
p2
S''
sS'layer'
p3
S'Framework'
p4
sS'code'
p5
S''
sS'snapshot'
p6
(dp7
S'exception'
p8
(dp9
S'__hash__'
p10
S"<method-wrapper '__hash__' of exceptions.SystemError object>"
p11
sS'__setattr__'
p12
S"<method-wrapper '__setattr__' of exceptions.SystemError object>"
p13
sS'__reduce_ex__'
p14
S'<built-in method __reduce_ex__ of exceptions.SystemError object>'
p15
sS'__getslice__'
p16
S"<method-wrapper '__getslice__' of exceptions.SystemError object>"
p17
sS'__getitem__'
p18
S"<method-wrapper '__getitem__' of exceptions.SystemError object>"
p19
sS'__setstate__'
p20
S'<built-in method __setstate__ of exceptions.SystemError object>'
p21
sS'__reduce__'
p22
S'<built-in method __reduce__ of exceptions.SystemError object>'
p23
sS'__str__'
p24
S"<method-wrapper '__str__' of exceptions.SystemError object>"
p25
sS'__format__'
p26
S'<built-in method __format__ of exceptions.SystemError object>'
p27
sS'__getattribute__'
p28
S"<method-wrapper '__getattribute__' of exceptions.SystemError object>"
p29
sS'__class__'
p30
S"<type 'exceptions.SystemError'>"
p31
sS'__unicode__'
p32
S'<built-in method __unicode__ of exceptions.SystemError object>'
p33
sS'__delattr__'
p34
S"<method-wrapper '__delattr__' of exceptions.SystemError object>"
p35
sS'__subclasshook__'
p36
S'<built-in method __subclasshook__ of type object>'
p37
sS'__repr__'
p38
S"<method-wrapper '__repr__' of exceptions.SystemError object>"
p39
sS'args'
p40
S"('compiled code is incompatible',)"
p41
sS'__dict__'
p42
S'{}'
p43
sS'__sizeof__'
p44
S'<built-in method __sizeof__ of exceptions.SystemError object>'
p45
sS'__doc__'
p46
S"'Internal error in the Python interpreter.\\n\\nPleas...ersion, and the hardware/OS platform and version.'"
p47
sS'__init__'
p48
S"<method-wrapper '__init__' of exceptions.SystemError object>"
p49
sS'__new__'
p50
S'<built-in method __new__ of type object>'
p51
ssS'evalue'
p52
S'compiled code is incompatible'
p53
sS'request'
p54
ccopy_reg
_reconstructor
p55
(cgluon.html
BEAUTIFY
p56
c__builtin__
object
p57
NtRp58
(dp59
S'attributes'
p60
(dp61
sS'components'
p62
(lp63
g55
(cgluon.html
TABLE
p64
g57
NtRp65
(dp66
g60
(dp67
S'level'
p68
I5
ssS'parent'
p69
Nsg62
(lp70
g55
(cgluon.html
TR
p71
g57
NtRp72
(dp73
g60
(dp74
sg69
g65
sg62
(lp75
g55
(cgluon.html
TD
p76
g57
NtRp77
(dp78
g60
(dp79
S'_style'
p80
S'font-weight:bold;'
p81
ssg69
g72
sg62
(lp82
S'ajax'
p83
asbag55
(g76
g57
NtRp84
(dp85
g60
(dp86
S'_valign'
p87
S'top'
p88
ssg69
g72
sg62
(lp89
S':'
asbag55
(g76
g57
NtRp90
(dp91
g60
(dp92
sg69
g72
sg62
(lp93
g55
(g56
g57
NtRp94
(dp95
g60
(dp96
g68
I5
ssg69
g90
sg62
(lp97
S'False'
p98
asbasbasbag55
(g71
g57
NtRp99
(dp100
g60
(dp101
sg69
g65
sg62
(lp102
g55
(g76
g57
NtRp103
(dp104
g60
(dp105
g80
g81
ssg69
g99
sg62
(lp106
S'application'
p107
asbag55
(g76
g57
NtRp108
(dp109
g60
(dp110
g87
g88
ssg69
g99
sg62
(lp111
S':'
asbag55
(g76
g57
NtRp112
(dp113
g60
(dp114
sg69
g99
sg62
(lp115
g55
(g56
g57
NtRp116
(dp117
g60
(dp118
g68
I5
ssg69
g112
sg62
(lp119
S'ge_finder'
p120
asbasbasbag55
(g71
g57
NtRp121
(dp122
g60
(dp123
sg69
g65
sg62
(lp124
g55
(g76
g57
NtRp125
(dp126
g60
(dp127
g80
g81
ssg69
g121
sg62
(lp128
g40
asbag55
(g76
g57
NtRp129
(dp130
g60
(dp131
g87
g88
ssg69
g121
sg62
(lp132
S':'
asbag55
(g76
g57
NtRp133
(dp134
g60
(dp135
sg69
g121
sg62
(lp136
g55
(g56
g57
NtRp137
(dp138
g60
(dp139
g68
I5
ssg69
g133
sg62
(lp140
g55
(g64
g57
NtRp141
(dp142
g60
(dp143
g68
I4
ssg69
Nsg62
(lp144
sbasbasbasbag55
(g71
g57
NtRp145
(dp146
g60
(dp147
sg69
g65
sg62
(lp148
g55
(g76
g57
NtRp149
(dp150
g60
(dp151
g80
g81
ssg69
g145
sg62
(lp152
S'body'
p153
asbag55
(g76
g57
NtRp154
(dp155
g60
(dp156
g87
g88
ssg69
g145
sg62
(lp157
S':'
asbag55
(g76
g57
NtRp158
(dp159
g60
(dp160
sg69
g145
sg62
(lp161
g55
(g56
g57
NtRp162
(dp163
g60
(dp164
g68
I5
ssg69
g158
sg62
(lp165
S'<cStringIO.StringO object at 0x9f2c600>'
p166
asbasbasbag55
(g71
g57
NtRp167
(dp168
g60
(dp169
sg69
g65
sg62
(lp170
g55
(g76
g57
NtRp171
(dp172
g60
(dp173
g80
g81
ssg69
g167
sg62
(lp174
S'client'
p175
asbag55
(g76
g57
NtRp176
(dp177
g60
(dp178
g87
g88
ssg69
g167
sg62
(lp179
S':'
asbag55
(g76
g57
NtRp180
(dp181
g60
(dp182
sg69
g167
sg62
(lp183
g55
(g56
g57
NtRp184
(dp185
g60
(dp186
g68
I5
ssg69
g180
sg62
(lp187
S'127.0.0.1'
p188
asbasbasbag55
(g71
g57
NtRp189
(dp190
g60
(dp191
sg69
g65
sg62
(lp192
g55
(g76
g57
NtRp193
(dp194
g60
(dp195
g80
g81
ssg69
g189
sg62
(lp196
S'controller'
p197
asbag55
(g76
g57
NtRp198
(dp199
g60
(dp200
g87
g88
ssg69
g189
sg62
(lp201
S':'
asbag55
(g76
g57
NtRp202
(dp203
g60
(dp204
sg69
g189
sg62
(lp205
g55
(g56
g57
NtRp206
(dp207
g60
(dp208
g68
I5
ssg69
g202
sg62
(lp209
S'default'
p210
asbasbasbag55
(g71
g57
NtRp211
(dp212
g60
(dp213
sg69
g65
sg62
(lp214
g55
(g76
g57
NtRp215
(dp216
g60
(dp217
g80
g81
ssg69
g211
sg62
(lp218
S'cookies'
p219
asbag55
(g76
g57
NtRp220
(dp221
g60
(dp222
g87
g88
ssg69
g211
sg62
(lp223
S':'
asbag55
(g76
g57
NtRp224
(dp225
g60
(dp226
sg69
g211
sg62
(lp227
g55
(g56
g57
NtRp228
(dp229
g60
(dp230
g68
I5
ssg69
g224
sg62
(lp231
g55
(g64
g57
NtRp232
(dp233
g60
(dp234
g68
I4
ssg69
Nsg62
(lp235
g55
(g71
g57
NtRp236
(dp237
g60
(dp238
sg69
g232
sg62
(lp239
g55
(g76
g57
NtRp240
(dp241
g60
(dp242
g80
g81
ssg69
g236
sg62
(lp243
S'session_id_admin'
p244
asbag55
(g76
g57
NtRp245
(dp246
g60
(dp247
g87
g88
ssg69
g236
sg62
(lp248
S':'
asbag55
(g76
g57
NtRp249
(dp250
g60
(dp251
sg69
g236
sg62
(lp252
g55
(g56
g57
NtRp253
(dp254
g60
(dp255
g68
I4
ssg69
g249
sg62
(lp256
g55
(g64
g57
NtRp257
(dp258
g60
(dp259
g68
I3
ssg69
Nsg62
(lp260
g55
(g71
g57
NtRp261
(dp262
g60
(dp263
sg69
g257
sg62
(lp264
g55
(g76
g57
NtRp265
(dp266
g60
(dp267
g80
g81
ssg69
g261
sg62
(lp268
S'comment'
p269
asbag55
(g76
g57
NtRp270
(dp271
g60
(dp272
g87
g88
ssg69
g261
sg62
(lp273
S':'
asbag55
(g76
g57
NtRp274
(dp275
g60
(dp276
sg69
g261
sg62
(lp277
g55
(g56
g57
NtRp278
(dp279
g60
(dp280
g68
I3
ssg69
g274
sg62
(lp281
S''
asbasbasbag55
(g71
g57
NtRp282
(dp283
g60
(dp284
sg69
g257
sg62
(lp285
g55
(g76
g57
NtRp286
(dp287
g60
(dp288
g80
g81
ssg69
g282
sg62
(lp289
S'domain'
p290
asbag55
(g76
g57
NtRp291
(dp292
g60
(dp293
g87
g88
ssg69
g282
sg62
(lp294
S':'
asbag55
(g76
g57
NtRp295
(dp296
g60
(dp297
sg69
g282
sg62
(lp298
g55
(g56
g57
NtRp299
(dp300
g60
(dp301
g68
I3
ssg69
g295
sg62
(lp302
S''
asbasbasbag55
(g71
g57
NtRp303
(dp304
g60
(dp305
sg69
g257
sg62
(lp306
g55
(g76
g57
NtRp307
(dp308
g60
(dp309
g80
g81
ssg69
g303
sg62
(lp310
S'expires'
p311
asbag55
(g76
g57
NtRp312
(dp313
g60
(dp314
g87
g88
ssg69
g303
sg62
(lp315
S':'
asbag55
(g76
g57
NtRp316
(dp317
g60
(dp318
sg69
g303
sg62
(lp319
g55
(g56
g57
NtRp320
(dp321
g60
(dp322
g68
I3
ssg69
g316
sg62
(lp323
S''
asbasbasbag55
(g71
g57
NtRp324
(dp325
g60
(dp326
sg69
g257
sg62
(lp327
g55
(g76
g57
NtRp328
(dp329
g60
(dp330
g80
g81
ssg69
g324
sg62
(lp331
S'httponly'
p332
asbag55
(g76
g57
NtRp333
(dp334
g60
(dp335
g87
g88
ssg69
g324
sg62
(lp336
S':'
asbag55
(g76
g57
NtRp337
(dp338
g60
(dp339
sg69
g324
sg62
(lp340
g55
(g56
g57
NtRp341
(dp342
g60
(dp343
g68
I3
ssg69
g337
sg62
(lp344
S''
asbasbasbag55
(g71
g57
NtRp345
(dp346
g60
(dp347
sg69
g257
sg62
(lp348
g55
(g76
g57
NtRp349
(dp350
g60
(dp351
g80
g81
ssg69
g345
sg62
(lp352
S'max-age'
p353
asbag55
(g76
g57
NtRp354
(dp355
g60
(dp356
g87
g88
ssg69
g345
sg62
(lp357
S':'
asbag55
(g76
g57
NtRp358
(dp359
g60
(dp360
sg69
g345
sg62
(lp361
g55
(g56
g57
NtRp362
(dp363
g60
(dp364
g68
I3
ssg69
g358
sg62
(lp365
S''
asbasbasbag55
(g71
g57
NtRp366
(dp367
g60
(dp368
sg69
g257
sg62
(lp369
g55
(g76
g57
NtRp370
(dp371
g60
(dp372
g80
g81
ssg69
g366
sg62
(lp373
S'path'
p374
asbag55
(g76
g57
NtRp375
(dp376
g60
(dp377
g87
g88
ssg69
g366
sg62
(lp378
S':'
asbag55
(g76
g57
NtRp379
(dp380
g60
(dp381
sg69
g366
sg62
(lp382
g55
(g56
g57
NtRp383
(dp384
g60
(dp385
g68
I3
ssg69
g379
sg62
(lp386
S''
asbasbasbag55
(g71
g57
NtRp387
(dp388
g60
(dp389
sg69
g257
sg62
(lp390
g55
(g76
g57
NtRp391
(dp392
g60
(dp393
g80
g81
ssg69
g387
sg62
(lp394
S'secure'
p395
asbag55
(g76
g57
NtRp396
(dp397
g60
(dp398
g87
g88
ssg69
g387
sg62
(lp399
S':'
asbag55
(g76
g57
NtRp400
(dp401
g60
(dp402
sg69
g387
sg62
(lp403
g55
(g56
g57
NtRp404
(dp405
g60
(dp406
g68
I3
ssg69
g400
sg62
(lp407
S''
asbasbasbag55
(g71
g57
NtRp408
(dp409
g60
(dp410
sg69
g257
sg62
(lp411
g55
(g76
g57
NtRp412
(dp413
g60
(dp414
g80
g81
ssg69
g408
sg62
(lp415
S'version'
p416
asbag55
(g76
g57
NtRp417
(dp418
g60
(dp419
g87
g88
ssg69
g408
sg62
(lp420
S':'
asbag55
(g76
g57
NtRp421
(dp422
g60
(dp423
sg69
g408
sg62
(lp424
g55
(g56
g57
NtRp425
(dp426
g60
(dp427
g68
I3
ssg69
g421
sg62
(lp428
S''
asbasbasbasbasbasbasbag55
(g71
g57
NtRp429
(dp430
g60
(dp431
sg69
g232
sg62
(lp432
g55
(g76
g57
NtRp433
(dp434
g60
(dp435
g80
g81
ssg69
g429
sg62
(lp436
S'session_id_ge_finder'
p437
asbag55
(g76
g57
NtRp438
(dp439
g60
(dp440
g87
g88
ssg69
g429
sg62
(lp441
S':'
asbag55
(g76
g57
NtRp442
(dp443
g60
(dp444
sg69
g429
sg62
(lp445
g55
(g56
g57
NtRp446
(dp447
g60
(dp448
g68
I4
ssg69
g442
sg62
(lp449
g55
(g64
g57
NtRp450
(dp451
g60
(dp452
g68
I3
ssg69
Nsg62
(lp453
g55
(g71
g57
NtRp454
(dp455
g60
(dp456
sg69
g450
sg62
(lp457
g55
(g76
g57
NtRp458
(dp459
g60
(dp460
g80
g81
ssg69
g454
sg62
(lp461
g269
asbag55
(g76
g57
NtRp462
(dp463
g60
(dp464
g87
g88
ssg69
g454
sg62
(lp465
S':'
asbag55
(g76
g57
NtRp466
(dp467
g60
(dp468
sg69
g454
sg62
(lp469
g55
(g56
g57
NtRp470
(dp471
g60
(dp472
g68
I3
ssg69
g466
sg62
(lp473
S''
asbasbasbag55
(g71
g57
NtRp474
(dp475
g60
(dp476
sg69
g450
sg62
(lp477
g55
(g76
g57
NtRp478
(dp479
g60
(dp480
g80
g81
ssg69
g474
sg62
(lp481
g290
asbag55
(g76
g57
NtRp482
(dp483
g60
(dp484
g87
g88
ssg69
g474
sg62
(lp485
S':'
asbag55
(g76
g57
NtRp486
(dp487
g60
(dp488
sg69
g474
sg62
(lp489
g55
(g56
g57
NtRp490
(dp491
g60
(dp492
g68
I3
ssg69
g486
sg62
(lp493
S''
asbasbasbag55
(g71
g57
NtRp494
(dp495
g60
(dp496
sg69
g450
sg62
(lp497
g55
(g76
g57
NtRp498
(dp499
g60
(dp500
g80
g81
ssg69
g494
sg62
(lp501
g311
asbag55
(g76
g57
NtRp502
(dp503
g60
(dp504
g87
g88
ssg69
g494
sg62
(lp505
S':'
asbag55
(g76
g57
NtRp506
(dp507
g60
(dp508
sg69
g494
sg62
(lp509
g55
(g56
g57
NtRp510
(dp511
g60
(dp512
g68
I3
ssg69
g506
sg62
(lp513
S''
asbasbasbag55
(g71
g57
NtRp514
(dp515
g60
(dp516
sg69
g450
sg62
(lp517
g55
(g76
g57
NtRp518
(dp519
g60
(dp520
g80
g81
ssg69
g514
sg62
(lp521
g332
asbag55
(g76
g57
NtRp522
(dp523
g60
(dp524
g87
g88
ssg69
g514
sg62
(lp525
S':'
asbag55
(g76
g57
NtRp526
(dp527
g60
(dp528
sg69
g514
sg62
(lp529
g55
(g56
g57
NtRp530
(dp531
g60
(dp532
g68
I3
ssg69
g526
sg62
(lp533
S''
asbasbasbag55
(g71
g57
NtRp534
(dp535
g60
(dp536
sg69
g450
sg62
(lp537
g55
(g76
g57
NtRp538
(dp539
g60
(dp540
g80
g81
ssg69
g534
sg62
(lp541
g353
asbag55
(g76
g57
NtRp542
(dp543
g60
(dp544
g87
g88
ssg69
g534
sg62
(lp545
S':'
asbag55
(g76
g57
NtRp546
(dp547
g60
(dp548
sg69
g534
sg62
(lp549
g55
(g56
g57
NtRp550
(dp551
g60
(dp552
g68
I3
ssg69
g546
sg62
(lp553
S''
asbasbasbag55
(g71
g57
NtRp554
(dp555
g60
(dp556
sg69
g450
sg62
(lp557
g55
(g76
g57
NtRp558
(dp559
g60
(dp560
g80
g81
ssg69
g554
sg62
(lp561
g374
asbag55
(g76
g57
NtRp562
(dp563
g60
(dp564
g87
g88
ssg69
g554
sg62
(lp565
S':'
asbag55
(g76
g57
NtRp566
(dp567
g60
(dp568
sg69
g554
sg62
(lp569
g55
(g56
g57
NtRp570
(dp571
g60
(dp572
g68
I3
ssg69
g566
sg62
(lp573
S''
asbasbasbag55
(g71
g57
NtRp574
(dp575
g60
(dp576
sg69
g450
sg62
(lp577
g55
(g76
g57
NtRp578
(dp579
g60
(dp580
g80
g81
ssg69
g574
sg62
(lp581
g395
asbag55
(g76
g57
NtRp582
(dp583
g60
(dp584
g87
g88
ssg69
g574
sg62
(lp585
S':'
asbag55
(g76
g57
NtRp586
(dp587
g60
(dp588
sg69
g574
sg62
(lp589
g55
(g56
g57
NtRp590
(dp591
g60
(dp592
g68
I3
ssg69
g586
sg62
(lp593
S''
asbasbasbag55
(g71
g57
NtRp594
(dp595
g60
(dp596
sg69
g450
sg62
(lp597
g55
(g76
g57
NtRp598
(dp599
g60
(dp600
g80
g81
ssg69
g594
sg62
(lp601
g416
asbag55
(g76
g57
NtRp602
(dp603
g60
(dp604
g87
g88
ssg69
g594
sg62
(lp605
S':'
asbag55
(g76
g57
NtRp606
(dp607
g60
(dp608
sg69
g594
sg62
(lp609
g55
(g56
g57
NtRp610
(dp611
g60
(dp612
g68
I3
ssg69
g606
sg62
(lp613
S''
asbasbasbasbasbasbasbag55
(g71
g57
NtRp614
(dp615
g60
(dp616
sg69
g232
sg62
(lp617
g55
(g76
g57
NtRp618
(dp619
g60
(dp620
g80
g81
ssg69
g614
sg62
(lp621
S'session_id_msghandler'
p622
asbag55
(g76
g57
NtRp623
(dp624
g60
(dp625
g87
g88
ssg69
g614
sg62
(lp626
S':'
asbag55
(g76
g57
NtRp627
(dp628
g60
(dp629
sg69
g614
sg62
(lp630
g55
(g56
g57
NtRp631
(dp632
g60
(dp633
g68
I4
ssg69
g627
sg62
(lp634
g55
(g64
g57
NtRp635
(dp636
g60
(dp637
g68
I3
ssg69
Nsg62
(lp638
g55
(g71
g57
NtRp639
(dp640
g60
(dp641
sg69
g635
sg62
(lp642
g55
(g76
g57
NtRp643
(dp644
g60
(dp645
g80
g81
ssg69
g639
sg62
(lp646
g269
asbag55
(g76
g57
NtRp647
(dp648
g60
(dp649
g87
g88
ssg69
g639
sg62
(lp650
S':'
asbag55
(g76
g57
NtRp651
(dp652
g60
(dp653
sg69
g639
sg62
(lp654
g55
(g56
g57
NtRp655
(dp656
g60
(dp657
g68
I3
ssg69
g651
sg62
(lp658
S''
asbasbasbag55
(g71
g57
NtRp659
(dp660
g60
(dp661
sg69
g635
sg62
(lp662
g55
(g76
g57
NtRp663
(dp664
g60
(dp665
g80
g81
ssg69
g659
sg62
(lp666
g290
asbag55
(g76
g57
NtRp667
(dp668
g60
(dp669
g87
g88
ssg69
g659
sg62
(lp670
S':'
asbag55
(g76
g57
NtRp671
(dp672
g60
(dp673
sg69
g659
sg62
(lp674
g55
(g56
g57
NtRp675
(dp676
g60
(dp677
g68
I3
ssg69
g671
sg62
(lp678
S''
asbasbasbag55
(g71
g57
NtRp679
(dp680
g60
(dp681
sg69
g635
sg62
(lp682
g55
(g76
g57
NtRp683
(dp684
g60
(dp685
g80
g81
ssg69
g679
sg62
(lp686
g311
asbag55
(g76
g57
NtRp687
(dp688
g60
(dp689
g87
g88
ssg69
g679
sg62
(lp690
S':'
asbag55
(g76
g57
NtRp691
(dp692
g60
(dp693
sg69
g679
sg62
(lp694
g55
(g56
g57
NtRp695
(dp696
g60
(dp697
g68
I3
ssg69
g691
sg62
(lp698
S''
asbasbasbag55
(g71
g57
NtRp699
(dp700
g60
(dp701
sg69
g635
sg62
(lp702
g55
(g76
g57
NtRp703
(dp704
g60
(dp705
g80
g81
ssg69
g699
sg62
(lp706
g332
asbag55
(g76
g57
NtRp707
(dp708
g60
(dp709
g87
g88
ssg69
g699
sg62
(lp710
S':'
asbag55
(g76
g57
NtRp711
(dp712
g60
(dp713
sg69
g699
sg62
(lp714
g55
(g56
g57
NtRp715
(dp716
g60
(dp717
g68
I3
ssg69
g711
sg62
(lp718
S''
asbasbasbag55
(g71
g57
NtRp719
(dp720
g60
(dp721
sg69
g635
sg62
(lp722
g55
(g76
g57
NtRp723
(dp724
g60
(dp725
g80
g81
ssg69
g719
sg62
(lp726
g353
asbag55
(g76
g57
NtRp727
(dp728
g60
(dp729
g87
g88
ssg69
g719
sg62
(lp730
S':'
asbag55
(g76
g57
NtRp731
(dp732
g60
(dp733
sg69
g719
sg62
(lp734
g55
(g56
g57
NtRp735
(dp736
g60
(dp737
g68
I3
ssg69
g731
sg62
(lp738
S''
asbasbasbag55
(g71
g57
NtRp739
(dp740
g60
(dp741
sg69
g635
sg62
(lp742
g55
(g76
g57
NtRp743
(dp744
g60
(dp745
g80
g81
ssg69
g739
sg62
(lp746
g374
asbag55
(g76
g57
NtRp747
(dp748
g60
(dp749
g87
g88
ssg69
g739
sg62
(lp750
S':'
asbag55
(g76
g57
NtRp751
(dp752
g60
(dp753
sg69
g739
sg62
(lp754
g55
(g56
g57
NtRp755
(dp756
g60
(dp757
g68
I3
ssg69
g751
sg62
(lp758
S''
asbasbasbag55
(g71
g57
NtRp759
(dp760
g60
(dp761
sg69
g635
sg62
(lp762
g55
(g76
g57
NtRp763
(dp764
g60
(dp765
g80
g81
ssg69
g759
sg62
(lp766
g395
asbag55
(g76
g57
NtRp767
(dp768
g60
(dp769
g87
g88
ssg69
g759
sg62
(lp770
S':'
asbag55
(g76
g57
NtRp771
(dp772
g60
(dp773
sg69
g759
sg62
(lp774
g55
(g56
g57
NtRp775
(dp776
g60
(dp777
g68
I3
ssg69
g771
sg62
(lp778
S''
asbasbasbag55
(g71
g57
NtRp779
(dp780
g60
(dp781
sg69
g635
sg62
(lp782
g55
(g76
g57
NtRp783
(dp784
g60
(dp785
g80
g81
ssg69
g779
sg62
(lp786
g416
asbag55
(g76
g57
NtRp787
(dp788
g60
(dp789
g87
g88
ssg69
g779
sg62
(lp790
S':'
asbag55
(g76
g57
NtRp791
(dp792
g60
(dp793
sg69
g779
sg62
(lp794
g55
(g56
g57
NtRp795
(dp796
g60
(dp797
g68
I3
ssg69
g791
sg62
(lp798
S''
asbasbasbasbasbasbasbasbasbasbasbag55
(g71
g57
NtRp799
(dp800
g60
(dp801
sg69
g65
sg62
(lp802
g55
(g76
g57
NtRp803
(dp804
g60
(dp805
g80
g81
ssg69
g799
sg62
(lp806
S'env'
p807
asbag55
(g76
g57
NtRp808
(dp809
g60
(dp810
g87
g88
ssg69
g799
sg62
(lp811
S':'
asbag55
(g76
g57
NtRp812
(dp813
g60
(dp814
sg69
g799
sg62
(lp815
g55
(g56
g57
NtRp816
(dp817
g60
(dp818
g68
I5
ssg69
g812
sg62
(lp819
g55
(g64
g57
NtRp820
(dp821
g60
(dp822
g68
I4
ssg69
Nsg62
(lp823
g55
(g71
g57
NtRp824
(dp825
g60
(dp826
sg69
g820
sg62
(lp827
g55
(g76
g57
NtRp828
(dp829
g60
(dp830
g80
g81
ssg69
g824
sg62
(lp831
S'app_folders'
p832
asbag55
(g76
g57
NtRp833
(dp834
g60
(dp835
g87
g88
ssg69
g824
sg62
(lp836
S':'
asbag55
(g76
g57
NtRp837
(dp838
g60
(dp839
sg69
g824
sg62
(lp840
g55
(g56
g57
NtRp841
(dp842
g60
(dp843
g68
I4
ssg69
g837
sg62
(lp844
S"set(['/home/raygomez/web2py/applications/msghandler/', '/home/raygomez/web2py/applications/ge_finder/', '/home/raygomez/web2py/applications/admin/'])"
p845
asbasbasbag55
(g71
g57
NtRp846
(dp847
g60
(dp848
sg69
g820
sg62
(lp849
g55
(g76
g57
NtRp850
(dp851
g60
(dp852
g80
g81
ssg69
g846
sg62
(lp853
S'applications_parent'
p854
asbag55
(g76
g57
NtRp855
(dp856
g60
(dp857
g87
g88
ssg69
g846
sg62
(lp858
S':'
asbag55
(g76
g57
NtRp859
(dp860
g60
(dp861
sg69
g846
sg62
(lp862
g55
(g56
g57
NtRp863
(dp864
g60
(dp865
g68
I4
ssg69
g859
sg62
(lp866
S'/home/raygomez/web2py'
p867
asbasbasbag55
(g71
g57
NtRp868
(dp869
g60
(dp870
sg69
g820
sg62
(lp871
g55
(g76
g57
NtRp872
(dp873
g60
(dp874
g80
g81
ssg69
g868
sg62
(lp875
S'cmd_args'
p876
asbag55
(g76
g57
NtRp877
(dp878
g60
(dp879
g87
g88
ssg69
g868
sg62
(lp880
S':'
asbag55
(g76
g57
NtRp881
(dp882
g60
(dp883
sg69
g868
sg62
(lp884
g55
(g56
g57
NtRp885
(dp886
g60
(dp887
g68
I4
ssg69
g881
sg62
(lp888
g55
(g64
g57
NtRp889
(dp890
g60
(dp891
g68
I3
ssg69
Nsg62
(lp892
sbasbasbasbag55
(g71
g57
NtRp893
(dp894
g60
(dp895
sg69
g820
sg62
(lp896
g55
(g76
g57
NtRp897
(dp898
g60
(dp899
g80
g81
ssg69
g893
sg62
(lp900
S'cmd_options'
p901
asbag55
(g76
g57
NtRp902
(dp903
g60
(dp904
g87
g88
ssg69
g893
sg62
(lp905
S':'
asbag55
(g76
g57
NtRp906
(dp907
g60
(dp908
sg69
g893
sg62
(lp909
g55
(g56
g57
NtRp910
(dp911
g60
(dp912
g68
I4
ssg69
g906
sg62
(lp913
S"<Values at 0x9e1210c: {'verbose': False, 'ip': '127.0.0.1', 'shutdown_timeout': 5, 'taskbar': False, 'port': 8000, 'maxthreads': None, 'softcron': False, 'server_name': 'ivalice', 'bpython': False, 'nogui': False, 'nocron': False, 'extcron': False, 'debuglevel': 30, 'test': None, 'folder': '/home/raygomez/web2py', 'config': '', 'import_models': False, 'winservice': '', 'shell': None, 'run': '', 'log_filename': 'httpserver.log', 'args': [''], 'profiler_filename': None, 'ssl_private_key': '', 'password': '1', 'request_queue_size': 5, 'ssl_certificate': '', 'cronjob': False, 'plain': False, 'quiet': False, 'interfaces': None, 'minthreads': None, 'timeout': 10, 'numthreads': None, 'pid_filename': 'httpserver.pid'}>"
p914
asbasbasbag55
(g71
g57
NtRp915
(dp916
g60
(dp917
sg69
g820
sg62
(lp918
g55
(g76
g57
NtRp919
(dp920
g60
(dp921
g80
g81
ssg69
g915
sg62
(lp922
S'db_sessions'
p923
asbag55
(g76
g57
NtRp924
(dp925
g60
(dp926
g87
g88
ssg69
g915
sg62
(lp927
S':'
asbag55
(g76
g57
NtRp928
(dp929
g60
(dp930
sg69
g915
sg62
(lp931
g55
(g56
g57
NtRp932
(dp933
g60
(dp934
g68
I4
ssg69
g928
sg62
(lp935
S'set([])'
p936
asbasbasbag55
(g71
g57
NtRp937
(dp938
g60
(dp939
sg69
g820
sg62
(lp940
g55
(g76
g57
NtRp941
(dp942
g60
(dp943
g80
g81
ssg69
g937
sg62
(lp944
S'debugging'
p945
asbag55
(g76
g57
NtRp946
(dp947
g60
(dp948
g87
g88
ssg69
g937
sg62
(lp949
S':'
asbag55
(g76
g57
NtRp950
(dp951
g60
(dp952
sg69
g937
sg62
(lp953
g55
(g56
g57
NtRp954
(dp955
g60
(dp956
g68
I4
ssg69
g950
sg62
(lp957
g98
asbasbasbag55
(g71
g57
NtRp958
(dp959
g60
(dp960
sg69
g820
sg62
(lp961
g55
(g76
g57
NtRp962
(dp963
g60
(dp964
g80
g81
ssg69
g958
sg62
(lp965
S'gluon_parent'
p966
asbag55
(g76
g57
NtRp967
(dp968
g60
(dp969
g87
g88
ssg69
g958
sg62
(lp970
S':'
asbag55
(g76
g57
NtRp971
(dp972
g60
(dp973
sg69
g958
sg62
(lp974
g55
(g56
g57
NtRp975
(dp976
g60
(dp977
g68
I4
ssg69
g971
sg62
(lp978
S'/home/raygomez/web2py'
p979
asbasbasbag55
(g71
g57
NtRp980
(dp981
g60
(dp982
sg69
g820
sg62
(lp983
g55
(g76
g57
NtRp984
(dp985
g60
(dp986
g80
g81
ssg69
g980
sg62
(lp987
S'http_accept'
p988
asbag55
(g76
g57
NtRp989
(dp990
g60
(dp991
g87
g88
ssg69
g980
sg62
(lp992
S':'
asbag55
(g76
g57
NtRp993
(dp994
g60
(dp995
sg69
g980
sg62
(lp996
g55
(g56
g57
NtRp997
(dp998
g60
(dp999
g68
I4
ssg69
g993
sg62
(lp1000
S'application/xml,application/xhtml+xml,text/html;q=0.9,text/plain;q=0.8,image/png,*/*;q=0.5'
p1001
asbasbasbag55
(g71
g57
NtRp1002
(dp1003
g60
(dp1004
sg69
g820
sg62
(lp1005
g55
(g76
g57
NtRp1006
(dp1007
g60
(dp1008
g80
g81
ssg69
g1002
sg62
(lp1009
S'http_accept_charset'
p1010
asbag55
(g76
g57
NtRp1011
(dp1012
g60
(dp1013
g87
g88
ssg69
g1002
sg62
(lp1014
S':'
asbag55
(g76
g57
NtRp1015
(dp1016
g60
(dp1017
sg69
g1002
sg62
(lp1018
g55
(g56
g57
NtRp1019
(dp1020
g60
(dp1021
g68
I4
ssg69
g1015
sg62
(lp1022
S'ISO-8859-1,utf-8;q=0.7,*;q=0.3'
p1023
asbasbasbag55
(g71
g57
NtRp1024
(dp1025
g60
(dp1026
sg69
g820
sg62
(lp1027
g55
(g76
g57
NtRp1028
(dp1029
g60
(dp1030
g80
g81
ssg69
g1024
sg62
(lp1031
S'http_accept_encoding'
p1032
asbag55
(g76
g57
NtRp1033
(dp1034
g60
(dp1035
g87
g88
ssg69
g1024
sg62
(lp1036
S':'
asbag55
(g76
g57
NtRp1037
(dp1038
g60
(dp1039
sg69
g1024
sg62
(lp1040
g55
(g56
g57
NtRp1041
(dp1042
g60
(dp1043
g68
I4
ssg69
g1037
sg62
(lp1044
S'gzip,deflate,sdch'
p1045
asbasbasbag55
(g71
g57
NtRp1046
(dp1047
g60
(dp1048
sg69
g820
sg62
(lp1049
g55
(g76
g57
NtRp1050
(dp1051
g60
(dp1052
g80
g81
ssg69
g1046
sg62
(lp1053
S'http_accept_language'
p1054
asbag55
(g76
g57
NtRp1055
(dp1056
g60
(dp1057
g87
g88
ssg69
g1046
sg62
(lp1058
S':'
asbag55
(g76
g57
NtRp1059
(dp1060
g60
(dp1061
sg69
g1046
sg62
(lp1062
g55
(g56
g57
NtRp1063
(dp1064
g60
(dp1065
g68
I4
ssg69
g1059
sg62
(lp1066
S'en,es;q=0.8,en-US;q=0.6'
p1067
asbasbasbag55
(g71
g57
NtRp1068
(dp1069
g60
(dp1070
sg69
g820
sg62
(lp1071
g55
(g76
g57
NtRp1072
(dp1073
g60
(dp1074
g80
g81
ssg69
g1068
sg62
(lp1075
S'http_connection'
p1076
asbag55
(g76
g57
NtRp1077
(dp1078
g60
(dp1079
g87
g88
ssg69
g1068
sg62
(lp1080
S':'
asbag55
(g76
g57
NtRp1081
(dp1082
g60
(dp1083
sg69
g1068
sg62
(lp1084
g55
(g56
g57
NtRp1085
(dp1086
g60
(dp1087
g68
I4
ssg69
g1081
sg62
(lp1088
S'keep-alive'
p1089
asbasbasbag55
(g71
g57
NtRp1090
(dp1091
g60
(dp1092
sg69
g820
sg62
(lp1093
g55
(g76
g57
NtRp1094
(dp1095
g60
(dp1096
g80
g81
ssg69
g1090
sg62
(lp1097
S'http_cookie'
p1098
asbag55
(g76
g57
NtRp1099
(dp1100
g60
(dp1101
g87
g88
ssg69
g1090
sg62
(lp1102
S':'
asbag55
(g76
g57
NtRp1103
(dp1104
g60
(dp1105
sg69
g1090
sg62
(lp1106
g55
(g56
g57
NtRp1107
(dp1108
g60
(dp1109
g68
I4
ssg69
g1103
sg62
(lp1110
S'session_id_msghandler=127.0.0.1-019d8e16-9c38-4188-81fb-b58d2ce98253; session_id_ge_finder=127.0.0.1-07cd66d6-bb93-4ff8-9b2a-a62ed2a57ecb; session_id_admin=127.0.0.1-385eb62a-7ea8-4559-87a5-b70e60a75202'
p1111
asbasbasbag55
(g71
g57
NtRp1112
(dp1113
g60
(dp1114
sg69
g820
sg62
(lp1115
g55
(g76
g57
NtRp1116
(dp1117
g60
(dp1118
g80
g81
ssg69
g1112
sg62
(lp1119
S'http_host'
p1120
asbag55
(g76
g57
NtRp1121
(dp1122
g60
(dp1123
g87
g88
ssg69
g1112
sg62
(lp1124
S':'
asbag55
(g76
g57
NtRp1125
(dp1126
g60
(dp1127
sg69
g1112
sg62
(lp1128
g55
(g56
g57
NtRp1129
(dp1130
g60
(dp1131
g68
I4
ssg69
g1125
sg62
(lp1132
S'localhost:8000'
p1133
asbasbasbag55
(g71
g57
NtRp1134
(dp1135
g60
(dp1136
sg69
g820
sg62
(lp1137
g55
(g76
g57
NtRp1138
(dp1139
g60
(dp1140
g80
g81
ssg69
g1134
sg62
(lp1141
S'http_user_agent'
p1142
asbag55
(g76
g57
NtRp1143
(dp1144
g60
(dp1145
g87
g88
ssg69
g1134
sg62
(lp1146
S':'
asbag55
(g76
g57
NtRp1147
(dp1148
g60
(dp1149
sg69
g1134
sg62
(lp1150
g55
(g56
g57
NtRp1151
(dp1152
g60
(dp1153
g68
I4
ssg69
g1147
sg62
(lp1154
S'Mozilla/5.0 (X11; Linux i686) AppleWebKit/534.24 (KHTML, like Gecko) Ubuntu/11.04 Chromium/11.0.696.68 Chrome/11.0.696.68 Safari/534.24'
p1155
asbasbasbag55
(g71
g57
NtRp1156
(dp1157
g60
(dp1158
sg69
g820
sg62
(lp1159
g55
(g76
g57
NtRp1160
(dp1161
g60
(dp1162
g80
g81
ssg69
g1156
sg62
(lp1163
S'path_info'
p1164
asbag55
(g76
g57
NtRp1165
(dp1166
g60
(dp1167
g87
g88
ssg69
g1156
sg62
(lp1168
S':'
asbag55
(g76
g57
NtRp1169
(dp1170
g60
(dp1171
sg69
g1156
sg62
(lp1172
g55
(g56
g57
NtRp1173
(dp1174
g60
(dp1175
g68
I4
ssg69
g1169
sg62
(lp1176
S'/ge_finder/default/index'
p1177
asbasbasbag55
(g71
g57
NtRp1178
(dp1179
g60
(dp1180
sg69
g820
sg62
(lp1181
g55
(g76
g57
NtRp1182
(dp1183
g60
(dp1184
g80
g81
ssg69
g1178
sg62
(lp1185
S'query_string'
p1186
asbag55
(g76
g57
NtRp1187
(dp1188
g60
(dp1189
g87
g88
ssg69
g1178
sg62
(lp1190
S':'
asbag55
(g76
g57
NtRp1191
(dp1192
g60
(dp1193
sg69
g1178
sg62
(lp1194
g55
(g56
g57
NtRp1195
(dp1196
g60
(dp1197
g68
I4
ssg69
g1191
sg62
(lp1198
S''
asbasbasbag55
(g71
g57
NtRp1199
(dp1200
g60
(dp1201
sg69
g820
sg62
(lp1202
g55
(g76
g57
NtRp1203
(dp1204
g60
(dp1205
g80
g81
ssg69
g1199
sg62
(lp1206
S'remote_addr'
p1207
asbag55
(g76
g57
NtRp1208
(dp1209
g60
(dp1210
g87
g88
ssg69
g1199
sg62
(lp1211
S':'
asbag55
(g76
g57
NtRp1212
(dp1213
g60
(dp1214
sg69
g1199
sg62
(lp1215
g55
(g56
g57
NtRp1216
(dp1217
g60
(dp1218
g68
I4
ssg69
g1212
sg62
(lp1219
g188
asbasbasbag55
(g71
g57
NtRp1220
(dp1221
g60
(dp1222
sg69
g820
sg62
(lp1223
g55
(g76
g57
NtRp1224
(dp1225
g60
(dp1226
g80
g81
ssg69
g1220
sg62
(lp1227
S'remote_port'
p1228
asbag55
(g76
g57
NtRp1229
(dp1230
g60
(dp1231
g87
g88
ssg69
g1220
sg62
(lp1232
S':'
asbag55
(g76
g57
NtRp1233
(dp1234
g60
(dp1235
sg69
g1220
sg62
(lp1236
g55
(g56
g57
NtRp1237
(dp1238
g60
(dp1239
g68
I4
ssg69
g1233
sg62
(lp1240
S'56731'
p1241
asbasbasbag55
(g71
g57
NtRp1242
(dp1243
g60
(dp1244
sg69
g820
sg62
(lp1245
g55
(g76
g57
NtRp1246
(dp1247
g60
(dp1248
g80
g81
ssg69
g1242
sg62
(lp1249
S'request_method'
p1250
asbag55
(g76
g57
NtRp1251
(dp1252
g60
(dp1253
g87
g88
ssg69
g1242
sg62
(lp1254
S':'
asbag55
(g76
g57
NtRp1255
(dp1256
g60
(dp1257
sg69
g1242
sg62
(lp1258
g55
(g56
g57
NtRp1259
(dp1260
g60
(dp1261
g68
I4
ssg69
g1255
sg62
(lp1262
S'GET'
p1263
asbasbasbag55
(g71
g57
NtRp1264
(dp1265
g60
(dp1266
sg69
g820
sg62
(lp1267
g55
(g76
g57
NtRp1268
(dp1269
g60
(dp1270
g80
g81
ssg69
g1264
sg62
(lp1271
S'request_uri'
p1272
asbag55
(g76
g57
NtRp1273
(dp1274
g60
(dp1275
g87
g88
ssg69
g1264
sg62
(lp1276
S':'
asbag55
(g76
g57
NtRp1277
(dp1278
g60
(dp1279
sg69
g1264
sg62
(lp1280
g55
(g56
g57
NtRp1281
(dp1282
g60
(dp1283
g68
I4
ssg69
g1277
sg62
(lp1284
g1177
asbasbasbag55
(g71
g57
NtRp1285
(dp1286
g60
(dp1287
sg69
g820
sg62
(lp1288
g55
(g76
g57
NtRp1289
(dp1290
g60
(dp1291
g80
g81
ssg69
g1285
sg62
(lp1292
S'script_name'
p1293
asbag55
(g76
g57
NtRp1294
(dp1295
g60
(dp1296
g87
g88
ssg69
g1285
sg62
(lp1297
S':'
asbag55
(g76
g57
NtRp1298
(dp1299
g60
(dp1300
sg69
g1285
sg62
(lp1301
g55
(g56
g57
NtRp1302
(dp1303
g60
(dp1304
g68
I4
ssg69
g1298
sg62
(lp1305
S''
asbasbasbag55
(g71
g57
NtRp1306
(dp1307
g60
(dp1308
sg69
g820
sg62
(lp1309
g55
(g76
g57
NtRp1310
(dp1311
g60
(dp1312
g80
g81
ssg69
g1306
sg62
(lp1313
S'server_name'
p1314
asbag55
(g76
g57
NtRp1315
(dp1316
g60
(dp1317
g87
g88
ssg69
g1306
sg62
(lp1318
S':'
asbag55
(g76
g57
NtRp1319
(dp1320
g60
(dp1321
sg69
g1306
sg62
(lp1322
g55
(g56
g57
NtRp1323
(dp1324
g60
(dp1325
g68
I4
ssg69
g1319
sg62
(lp1326
S'ivalice'
p1327
asbasbasbag55
(g71
g57
NtRp1328
(dp1329
g60
(dp1330
sg69
g820
sg62
(lp1331
g55
(g76
g57
NtRp1332
(dp1333
g60
(dp1334
g80
g81
ssg69
g1328
sg62
(lp1335
S'server_port'
p1336
asbag55
(g76
g57
NtRp1337
(dp1338
g60
(dp1339
g87
g88
ssg69
g1328
sg62
(lp1340
S':'
asbag55
(g76
g57
NtRp1341
(dp1342
g60
(dp1343
sg69
g1328
sg62
(lp1344
g55
(g56
g57
NtRp1345
(dp1346
g60
(dp1347
g68
I4
ssg69
g1341
sg62
(lp1348
S'8000'
p1349
asbasbasbag55
(g71
g57
NtRp1350
(dp1351
g60
(dp1352
sg69
g820
sg62
(lp1353
g55
(g76
g57
NtRp1354
(dp1355
g60
(dp1356
g80
g81
ssg69
g1350
sg62
(lp1357
S'server_protocol'
p1358
asbag55
(g76
g57
NtRp1359
(dp1360
g60
(dp1361
g87
g88
ssg69
g1350
sg62
(lp1362
S':'
asbag55
(g76
g57
NtRp1363
(dp1364
g60
(dp1365
sg69
g1350
sg62
(lp1366
g55
(g56
g57
NtRp1367
(dp1368
g60
(dp1369
g68
I4
ssg69
g1363
sg62
(lp1370
S'HTTP/1.1'
p1371
asbasbasbag55
(g71
g57
NtRp1372
(dp1373
g60
(dp1374
sg69
g820
sg62
(lp1375
g55
(g76
g57
NtRp1376
(dp1377
g60
(dp1378
g80
g81
ssg69
g1372
sg62
(lp1379
S'server_software'
p1380
asbag55
(g76
g57
NtRp1381
(dp1382
g60
(dp1383
g87
g88
ssg69
g1372
sg62
(lp1384
S':'
asbag55
(g76
g57
NtRp1385
(dp1386
g60
(dp1387
sg69
g1372
sg62
(lp1388
g55
(g56
g57
NtRp1389
(dp1390
g60
(dp1391
g68
I4
ssg69
g1385
sg62
(lp1392
S'Rocket 1.2.2'
p1393
asbasbasbag55
(g71
g57
NtRp1394
(dp1395
g60
(dp1396
sg69
g820
sg62
(lp1397
g55
(g76
g57
NtRp1398
(dp1399
g60
(dp1400
g80
g81
ssg69
g1394
sg62
(lp1401
S'web2py_crontype'
p1402
asbag55
(g76
g57
NtRp1403
(dp1404
g60
(dp1405
g87
g88
ssg69
g1394
sg62
(lp1406
S':'
asbag55
(g76
g57
NtRp1407
(dp1408
g60
(dp1409
sg69
g1394
sg62
(lp1410
g55
(g56
g57
NtRp1411
(dp1412
g60
(dp1413
g68
I4
ssg69
g1407
sg62
(lp1414
S'hard'
p1415
asbasbasbag55
(g71
g57
NtRp1416
(dp1417
g60
(dp1418
sg69
g820
sg62
(lp1419
g55
(g76
g57
NtRp1420
(dp1421
g60
(dp1422
g80
g81
ssg69
g1416
sg62
(lp1423
S'web2py_original_uri'
p1424
asbag55
(g76
g57
NtRp1425
(dp1426
g60
(dp1427
g87
g88
ssg69
g1416
sg62
(lp1428
S':'
asbag55
(g76
g57
NtRp1429
(dp1430
g60
(dp1431
sg69
g1416
sg62
(lp1432
g55
(g56
g57
NtRp1433
(dp1434
g60
(dp1435
g68
I4
ssg69
g1429
sg62
(lp1436
g1177
asbasbasbag55
(g71
g57
NtRp1437
(dp1438
g60
(dp1439
sg69
g820
sg62
(lp1440
g55
(g76
g57
NtRp1441
(dp1442
g60
(dp1443
g80
g81
ssg69
g1437
sg62
(lp1444
S'web2py_path'
p1445
asbag55
(g76
g57
NtRp1446
(dp1447
g60
(dp1448
g87
g88
ssg69
g1437
sg62
(lp1449
S':'
asbag55
(g76
g57
NtRp1450
(dp1451
g60
(dp1452
sg69
g1437
sg62
(lp1453
g55
(g56
g57
NtRp1454
(dp1455
g60
(dp1456
g68
I4
ssg69
g1450
sg62
(lp1457
g867
asbasbasbag55
(g71
g57
NtRp1458
(dp1459
g60
(dp1460
sg69
g820
sg62
(lp1461
g55
(g76
g57
NtRp1462
(dp1463
g60
(dp1464
g80
g81
ssg69
g1458
sg62
(lp1465
S'web2py_version'
p1466
asbag55
(g76
g57
NtRp1467
(dp1468
g60
(dp1469
g87
g88
ssg69
g1458
sg62
(lp1470
S':'
asbag55
(g76
g57
NtRp1471
(dp1472
g60
(dp1473
sg69
g1458
sg62
(lp1474
g55
(g56
g57
NtRp1475
(dp1476
g60
(dp1477
g68
I4
ssg69
g1471
sg62
(lp1478
S'Version 1.95.1 (2011-04-25 15:04:14)\n'
p1479
asbasbasbag55
(g71
g57
NtRp1480
(dp1481
g60
(dp1482
sg69
g820
sg62
(lp1483
g55
(g76
g57
NtRp1484
(dp1485
g60
(dp1486
g80
g81
ssg69
g1480
sg62
(lp1487
S'wsgi_errors'
p1488
asbag55
(g76
g57
NtRp1489
(dp1490
g60
(dp1491
g87
g88
ssg69
g1480
sg62
(lp1492
S':'
asbag55
(g76
g57
NtRp1493
(dp1494
g60
(dp1495
sg69
g1480
sg62
(lp1496
g55
(g56
g57
NtRp1497
(dp1498
g60
(dp1499
g68
I4
ssg69
g1493
sg62
(lp1500
S"<open file '<stderr>', mode 'w' at 0xb77b80d0>"
p1501
asbasbasbag55
(g71
g57
NtRp1502
(dp1503
g60
(dp1504
sg69
g820
sg62
(lp1505
g55
(g76
g57
NtRp1506
(dp1507
g60
(dp1508
g80
g81
ssg69
g1502
sg62
(lp1509
S'wsgi_file_wrapper'
p1510
asbag55
(g76
g57
NtRp1511
(dp1512
g60
(dp1513
g87
g88
ssg69
g1502
sg62
(lp1514
S':'
asbag55
(g76
g57
NtRp1515
(dp1516
g60
(dp1517
sg69
g1502
sg62
(lp1518
g55
(g56
g57
NtRp1519
(dp1520
g60
(dp1521
g68
I4
ssg69
g1515
sg62
(lp1522
S'<class gluon.rocket.FileWrapper at 0x9d865cc>'
p1523
asbasbasbag55
(g71
g57
NtRp1524
(dp1525
g60
(dp1526
sg69
g820
sg62
(lp1527
g55
(g76
g57
NtRp1528
(dp1529
g60
(dp1530
g80
g81
ssg69
g1524
sg62
(lp1531
S'wsgi_input'
p1532
asbag55
(g76
g57
NtRp1533
(dp1534
g60
(dp1535
g87
g88
ssg69
g1524
sg62
(lp1536
S':'
asbag55
(g76
g57
NtRp1537
(dp1538
g60
(dp1539
sg69
g1524
sg62
(lp1540
g55
(g56
g57
NtRp1541
(dp1542
g60
(dp1543
g68
I4
ssg69
g1537
sg62
(lp1544
S'<socket._fileobject object at 0xbc7c8ac>'
p1545
asbasbasbag55
(g71
g57
NtRp1546
(dp1547
g60
(dp1548
sg69
g820
sg62
(lp1549
g55
(g76
g57
NtRp1550
(dp1551
g60
(dp1552
g80
g81
ssg69
g1546
sg62
(lp1553
S'wsgi_multiprocess'
p1554
asbag55
(g76
g57
NtRp1555
(dp1556
g60
(dp1557
g87
g88
ssg69
g1546
sg62
(lp1558
S':'
asbag55
(g76
g57
NtRp1559
(dp1560
g60
(dp1561
sg69
g1546
sg62
(lp1562
g55
(g56
g57
NtRp1563
(dp1564
g60
(dp1565
g68
I4
ssg69
g1559
sg62
(lp1566
g98
asbasbasbag55
(g71
g57
NtRp1567
(dp1568
g60
(dp1569
sg69
g820
sg62
(lp1570
g55
(g76
g57
NtRp1571
(dp1572
g60
(dp1573
g80
g81
ssg69
g1567
sg62
(lp1574
S'wsgi_multithread'
p1575
asbag55
(g76
g57
NtRp1576
(dp1577
g60
(dp1578
g87
g88
ssg69
g1567
sg62
(lp1579
S':'
asbag55
(g76
g57
NtRp1580
(dp1581
g60
(dp1582
sg69
g1567
sg62
(lp1583
g55
(g56
g57
NtRp1584
(dp1585
g60
(dp1586
g68
I4
ssg69
g1580
sg62
(lp1587
S'True'
p1588
asbasbasbag55
(g71
g57
NtRp1589
(dp1590
g60
(dp1591
sg69
g820
sg62
(lp1592
g55
(g76
g57
NtRp1593
(dp1594
g60
(dp1595
g80
g81
ssg69
g1589
sg62
(lp1596
S'wsgi_run_once'
p1597
asbag55
(g76
g57
NtRp1598
(dp1599
g60
(dp1600
g87
g88
ssg69
g1589
sg62
(lp1601
S':'
asbag55
(g76
g57
NtRp1602
(dp1603
g60
(dp1604
sg69
g1589
sg62
(lp1605
g55
(g56
g57
NtRp1606
(dp1607
g60
(dp1608
g68
I4
ssg69
g1602
sg62
(lp1609
g98
asbasbasbag55
(g71
g57
NtRp1610
(dp1611
g60
(dp1612
sg69
g820
sg62
(lp1613
g55
(g76
g57
NtRp1614
(dp1615
g60
(dp1616
g80
g81
ssg69
g1610
sg62
(lp1617
S'wsgi_url_scheme'
p1618
asbag55
(g76
g57
NtRp1619
(dp1620
g60
(dp1621
g87
g88
ssg69
g1610
sg62
(lp1622
S':'
asbag55
(g76
g57
NtRp1623
(dp1624
g60
(dp1625
sg69
g1610
sg62
(lp1626
g55
(g56
g57
NtRp1627
(dp1628
g60
(dp1629
g68
I4
ssg69
g1623
sg62
(lp1630
S'http'
p1631
asbasbasbag55
(g71
g57
NtRp1632
(dp1633
g60
(dp1634
sg69
g820
sg62
(lp1635
g55
(g76
g57
NtRp1636
(dp1637
g60
(dp1638
g80
g81
ssg69
g1632
sg62
(lp1639
S'wsgi_version'
p1640
asbag55
(g76
g57
NtRp1641
(dp1642
g60
(dp1643
g87
g88
ssg69
g1632
sg62
(lp1644
S':'
asbag55
(g76
g57
NtRp1645
(dp1646
g60
(dp1647
sg69
g1632
sg62
(lp1648
g55
(g56
g57
NtRp1649
(dp1650
g60
(dp1651
g68
I4
ssg69
g1645
sg62
(lp1652
g55
(g64
g57
NtRp1653
(dp1654
g60
(dp1655
g68
I3
ssg69
Nsg62
(lp1656
g55
(g71
g57
NtRp1657
(dp1658
g60
(dp1659
sg69
g1653
sg62
(lp1660
g55
(g76
g57
NtRp1661
(dp1662
g60
(dp1663
sg69
g1657
sg62
(lp1664
g55
(g56
g57
NtRp1665
(dp1666
g60
(dp1667
g68
I3
ssg69
g1661
sg62
(lp1668
S'1'
asbasbasbag55
(g71
g57
NtRp1669
(dp1670
g60
(dp1671
sg69
g1653
sg62
(lp1672
g55
(g76
g57
NtRp1673
(dp1674
g60
(dp1675
sg69
g1669
sg62
(lp1676
g55
(g56
g57
NtRp1677
(dp1678
g60
(dp1679
g68
I3
ssg69
g1673
sg62
(lp1680
S'0'
asbasbasbasbasbasbasbasbasbasbasbag55
(g71
g57
NtRp1681
(dp1682
g60
(dp1683
sg69
g65
sg62
(lp1684
g55
(g76
g57
NtRp1685
(dp1686
g60
(dp1687
g80
g81
ssg69
g1681
sg62
(lp1688
S'extension'
p1689
asbag55
(g76
g57
NtRp1690
(dp1691
g60
(dp1692
g87
g88
ssg69
g1681
sg62
(lp1693
S':'
asbag55
(g76
g57
NtRp1694
(dp1695
g60
(dp1696
sg69
g1681
sg62
(lp1697
g55
(g56
g57
NtRp1698
(dp1699
g60
(dp1700
g68
I5
ssg69
g1694
sg62
(lp1701
S'html'
p1702
asbasbasbag55
(g71
g57
NtRp1703
(dp1704
g60
(dp1705
sg69
g65
sg62
(lp1706
g55
(g76
g57
NtRp1707
(dp1708
g60
(dp1709
g80
g81
ssg69
g1703
sg62
(lp1710
S'folder'
p1711
asbag55
(g76
g57
NtRp1712
(dp1713
g60
(dp1714
g87
g88
ssg69
g1703
sg62
(lp1715
S':'
asbag55
(g76
g57
NtRp1716
(dp1717
g60
(dp1718
sg69
g1703
sg62
(lp1719
g55
(g56
g57
NtRp1720
(dp1721
g60
(dp1722
g68
I5
ssg69
g1716
sg62
(lp1723
S'/home/raygomez/web2py/applications/ge_finder/'
p1724
asbasbasbag55
(g71
g57
NtRp1725
(dp1726
g60
(dp1727
sg69
g65
sg62
(lp1728
g55
(g76
g57
NtRp1729
(dp1730
g60
(dp1731
g80
g81
ssg69
g1725
sg62
(lp1732
S'function'
p1733
asbag55
(g76
g57
NtRp1734
(dp1735
g60
(dp1736
g87
g88
ssg69
g1725
sg62
(lp1737
S':'
asbag55
(g76
g57
NtRp1738
(dp1739
g60
(dp1740
sg69
g1725
sg62
(lp1741
g55
(g56
g57
NtRp1742
(dp1743
g60
(dp1744
g68
I5
ssg69
g1738
sg62
(lp1745
S'index'
p1746
asbasbasbag55
(g71
g57
NtRp1747
(dp1748
g60
(dp1749
sg69
g65
sg62
(lp1750
g55
(g76
g57
NtRp1751
(dp1752
g60
(dp1753
g80
g81
ssg69
g1747
sg62
(lp1754
S'get_vars'
p1755
asbag55
(g76
g57
NtRp1756
(dp1757
g60
(dp1758
g87
g88
ssg69
g1747
sg62
(lp1759
S':'
asbag55
(g76
g57
NtRp1760
(dp1761
g60
(dp1762
sg69
g1747
sg62
(lp1763
g55
(g56
g57
NtRp1764
(dp1765
g60
(dp1766
g68
I5
ssg69
g1760
sg62
(lp1767
g55
(g64
g57
NtRp1768
(dp1769
g60
(dp1770
g68
I4
ssg69
Nsg62
(lp1771
sbasbasbasbag55
(g71
g57
NtRp1772
(dp1773
g60
(dp1774
sg69
g65
sg62
(lp1775
g55
(g76
g57
NtRp1776
(dp1777
g60
(dp1778
g80
g81
ssg69
g1772
sg62
(lp1779
S'is_restful'
p1780
asbag55
(g76
g57
NtRp1781
(dp1782
g60
(dp1783
g87
g88
ssg69
g1772
sg62
(lp1784
S':'
asbag55
(g76
g57
NtRp1785
(dp1786
g60
(dp1787
sg69
g1772
sg62
(lp1788
g55
(g56
g57
NtRp1789
(dp1790
g60
(dp1791
g68
I5
ssg69
g1785
sg62
(lp1792
g98
asbasbasbag55
(g71
g57
NtRp1793
(dp1794
g60
(dp1795
sg69
g65
sg62
(lp1796
g55
(g76
g57
NtRp1797
(dp1798
g60
(dp1799
g80
g81
ssg69
g1793
sg62
(lp1800
S'now'
p1801
asbag55
(g76
g57
NtRp1802
(dp1803
g60
(dp1804
g87
g88
ssg69
g1793
sg62
(lp1805
S':'
asbag55
(g76
g57
NtRp1806
(dp1807
g60
(dp1808
sg69
g1793
sg62
(lp1809
g55
(g56
g57
NtRp1810
(dp1811
g60
(dp1812
g68
I5
ssg69
g1806
sg62
(lp1813
S'datetime.datetime(2011, 5, 23, 9, 38, 25, 869738)'
p1814
asbasbasbag55
(g71
g57
NtRp1815
(dp1816
g60
(dp1817
sg69
g65
sg62
(lp1818
g55
(g76
g57
NtRp1819
(dp1820
g60
(dp1821
g80
g81
ssg69
g1815
sg62
(lp1822
S'post_vars'
p1823
asbag55
(g76
g57
NtRp1824
(dp1825
g60
(dp1826
g87
g88
ssg69
g1815
sg62
(lp1827
S':'
asbag55
(g76
g57
NtRp1828
(dp1829
g60
(dp1830
sg69
g1815
sg62
(lp1831
g55
(g56
g57
NtRp1832
(dp1833
g60
(dp1834
g68
I5
ssg69
g1828
sg62
(lp1835
g55
(g64
g57
NtRp1836
(dp1837
g60
(dp1838
g68
I4
ssg69
Nsg62
(lp1839
sbasbasbasbag55
(g71
g57
NtRp1840
(dp1841
g60
(dp1842
sg69
g65
sg62
(lp1843
g55
(g76
g57
NtRp1844
(dp1845
g60
(dp1846
g80
g81
ssg69
g1840
sg62
(lp1847
S'url'
p1848
asbag55
(g76
g57
NtRp1849
(dp1850
g60
(dp1851
g87
g88
ssg69
g1840
sg62
(lp1852
S':'
asbag55
(g76
g57
NtRp1853
(dp1854
g60
(dp1855
sg69
g1840
sg62
(lp1856
g55
(g56
g57
NtRp1857
(dp1858
g60
(dp1859
g68
I5
ssg69
g1853
sg62
(lp1860
S'/ge_finder/default/index'
p1861
asbasbasbag55
(g71
g57
NtRp1862
(dp1863
g60
(dp1864
sg69
g65
sg62
(lp1865
g55
(g76
g57
NtRp1866
(dp1867
g60
(dp1868
g80
g81
ssg69
g1862
sg62
(lp1869
S'uuid'
p1870
asbag55
(g76
g57
NtRp1871
(dp1872
g60
(dp1873
g87
g88
ssg69
g1862
sg62
(lp1874
S':'
asbag55
(g76
g57
NtRp1875
(dp1876
g60
(dp1877
sg69
g1862
sg62
(lp1878
g55
(g56
g57
NtRp1879
(dp1880
g60
(dp1881
g68
I5
ssg69
g1875
sg62
(lp1882
S'ge_finder/127.0.0.1.2011-05-23.09-38-25.f1a9bf1f-0a89-4efe-8e97-331623f8ede4'
p1883
asbasbasbag55
(g71
g57
NtRp1884
(dp1885
g60
(dp1886
sg69
g65
sg62
(lp1887
g55
(g76
g57
NtRp1888
(dp1889
g60
(dp1890
g80
g81
ssg69
g1884
sg62
(lp1891
S'vars'
p1892
asbag55
(g76
g57
NtRp1893
(dp1894
g60
(dp1895
g87
g88
ssg69
g1884
sg62
(lp1896
S':'
asbag55
(g76
g57
NtRp1897
(dp1898
g60
(dp1899
sg69
g1884
sg62
(lp1900
g55
(g56
g57
NtRp1901
(dp1902
g60
(dp1903
g68
I5
ssg69
g1897
sg62
(lp1904
g55
(g64
g57
NtRp1905
(dp1906
g60
(dp1907
g68
I4
ssg69
Nsg62
(lp1908
sbasbasbasbag55
(g71
g57
NtRp1909
(dp1910
g60
(dp1911
sg69
g65
sg62
(lp1912
g55
(g76
g57
NtRp1913
(dp1914
g60
(dp1915
g80
g81
ssg69
g1909
sg62
(lp1916
S'wsgi'
p1917
asbag55
(g76
g57
NtRp1918
(dp1919
g60
(dp1920
g87
g88
ssg69
g1909
sg62
(lp1921
S':'
asbag55
(g76
g57
NtRp1922
(dp1923
g60
(dp1924
sg69
g1909
sg62
(lp1925
g55
(g56
g57
NtRp1926
(dp1927
g60
(dp1928
g68
I5
ssg69
g1922
sg62
(lp1929
g55
(g64
g57
NtRp1930
(dp1931
g60
(dp1932
g68
I4
ssg69
Nsg62
(lp1933
g55
(g71
g57
NtRp1934
(dp1935
g60
(dp1936
sg69
g1930
sg62
(lp1937
g55
(g76
g57
NtRp1938
(dp1939
g60
(dp1940
g80
g81
ssg69
g1934
sg62
(lp1941
S'environ'
p1942
asbag55
(g76
g57
NtRp1943
(dp1944
g60
(dp1945
g87
g88
ssg69
g1934
sg62
(lp1946
S':'
asbag55
(g76
g57
NtRp1947
(dp1948
g60
(dp1949
sg69
g1934
sg62
(lp1950
g55
(g56
g57
NtRp1951
(dp1952
g60
(dp1953
g68
I4
ssg69
g1947
sg62
(lp1954
g55
(g64
g57
NtRp1955
(dp1956
g60
(dp1957
g68
I3
ssg69
Nsg62
(lp1958
g55
(g71
g57
NtRp1959
(dp1960
g60
(dp1961
sg69
g1955
sg62
(lp1962
g55
(g76
g57
NtRp1963
(dp1964
g60
(dp1965
g80
g81
ssg69
g1959
sg62
(lp1966
S'HTTP_ACCEPT'
p1967
asbag55
(g76
g57
NtRp1968
(dp1969
g60
(dp1970
g87
g88
ssg69
g1959
sg62
(lp1971
S':'
asbag55
(g76
g57
NtRp1972
(dp1973
g60
(dp1974
sg69
g1959
sg62
(lp1975
g55
(g56
g57
NtRp1976
(dp1977
g60
(dp1978
g68
I3
ssg69
g1972
sg62
(lp1979
g1001
asbasbasbag55
(g71
g57
NtRp1980
(dp1981
g60
(dp1982
sg69
g1955
sg62
(lp1983
g55
(g76
g57
NtRp1984
(dp1985
g60
(dp1986
g80
g81
ssg69
g1980
sg62
(lp1987
S'HTTP_ACCEPT_CHARSET'
p1988
asbag55
(g76
g57
NtRp1989
(dp1990
g60
(dp1991
g87
g88
ssg69
g1980
sg62
(lp1992
S':'
asbag55
(g76
g57
NtRp1993
(dp1994
g60
(dp1995
sg69
g1980
sg62
(lp1996
g55
(g56
g57
NtRp1997
(dp1998
g60
(dp1999
g68
I3
ssg69
g1993
sg62
(lp2000
g1023
asbasbasbag55
(g71
g57
NtRp2001
(dp2002
g60
(dp2003
sg69
g1955
sg62
(lp2004
g55
(g76
g57
NtRp2005
(dp2006
g60
(dp2007
g80
g81
ssg69
g2001
sg62
(lp2008
S'HTTP_ACCEPT_ENCODING'
p2009
asbag55
(g76
g57
NtRp2010
(dp2011
g60
(dp2012
g87
g88
ssg69
g2001
sg62
(lp2013
S':'
asbag55
(g76
g57
NtRp2014
(dp2015
g60
(dp2016
sg69
g2001
sg62
(lp2017
g55
(g56
g57
NtRp2018
(dp2019
g60
(dp2020
g68
I3
ssg69
g2014
sg62
(lp2021
g1045
asbasbasbag55
(g71
g57
NtRp2022
(dp2023
g60
(dp2024
sg69
g1955
sg62
(lp2025
g55
(g76
g57
NtRp2026
(dp2027
g60
(dp2028
g80
g81
ssg69
g2022
sg62
(lp2029
S'HTTP_ACCEPT_LANGUAGE'
p2030
asbag55
(g76
g57
NtRp2031
(dp2032
g60
(dp2033
g87
g88
ssg69
g2022
sg62
(lp2034
S':'
asbag55
(g76
g57
NtRp2035
(dp2036
g60
(dp2037
sg69
g2022
sg62
(lp2038
g55
(g56
g57
NtRp2039
(dp2040
g60
(dp2041
g68
I3
ssg69
g2035
sg62
(lp2042
g1067
asbasbasbag55
(g71
g57
NtRp2043
(dp2044
g60
(dp2045
sg69
g1955
sg62
(lp2046
g55
(g76
g57
NtRp2047
(dp2048
g60
(dp2049
g80
g81
ssg69
g2043
sg62
(lp2050
S'HTTP_CONNECTION'
p2051
asbag55
(g76
g57
NtRp2052
(dp2053
g60
(dp2054
g87
g88
ssg69
g2043
sg62
(lp2055
S':'
asbag55
(g76
g57
NtRp2056
(dp2057
g60
(dp2058
sg69
g2043
sg62
(lp2059
g55
(g56
g57
NtRp2060
(dp2061
g60
(dp2062
g68
I3
ssg69
g2056
sg62
(lp2063
g1089
asbasbasbag55
(g71
g57
NtRp2064
(dp2065
g60
(dp2066
sg69
g1955
sg62
(lp2067
g55
(g76
g57
NtRp2068
(dp2069
g60
(dp2070
g80
g81
ssg69
g2064
sg62
(lp2071
S'HTTP_COOKIE'
p2072
asbag55
(g76
g57
NtRp2073
(dp2074
g60
(dp2075
g87
g88
ssg69
g2064
sg62
(lp2076
S':'
asbag55
(g76
g57
NtRp2077
(dp2078
g60
(dp2079
sg69
g2064
sg62
(lp2080
g55
(g56
g57
NtRp2081
(dp2082
g60
(dp2083
g68
I3
ssg69
g2077
sg62
(lp2084
g1111
asbasbasbag55
(g71
g57
NtRp2085
(dp2086
g60
(dp2087
sg69
g1955
sg62
(lp2088
g55
(g76
g57
NtRp2089
(dp2090
g60
(dp2091
g80
g81
ssg69
g2085
sg62
(lp2092
S'HTTP_HOST'
p2093
asbag55
(g76
g57
NtRp2094
(dp2095
g60
(dp2096
g87
g88
ssg69
g2085
sg62
(lp2097
S':'
asbag55
(g76
g57
NtRp2098
(dp2099
g60
(dp2100
sg69
g2085
sg62
(lp2101
g55
(g56
g57
NtRp2102
(dp2103
g60
(dp2104
g68
I3
ssg69
g2098
sg62
(lp2105
g1133
asbasbasbag55
(g71
g57
NtRp2106
(dp2107
g60
(dp2108
sg69
g1955
sg62
(lp2109
g55
(g76
g57
NtRp2110
(dp2111
g60
(dp2112
g80
g81
ssg69
g2106
sg62
(lp2113
S'HTTP_USER_AGENT'
p2114
asbag55
(g76
g57
NtRp2115
(dp2116
g60
(dp2117
g87
g88
ssg69
g2106
sg62
(lp2118
S':'
asbag55
(g76
g57
NtRp2119
(dp2120
g60
(dp2121
sg69
g2106
sg62
(lp2122
g55
(g56
g57
NtRp2123
(dp2124
g60
(dp2125
g68
I3
ssg69
g2119
sg62
(lp2126
g1155
asbasbasbag55
(g71
g57
NtRp2127
(dp2128
g60
(dp2129
sg69
g1955
sg62
(lp2130
g55
(g76
g57
NtRp2131
(dp2132
g60
(dp2133
g80
g81
ssg69
g2127
sg62
(lp2134
S'PATH_INFO'
p2135
asbag55
(g76
g57
NtRp2136
(dp2137
g60
(dp2138
g87
g88
ssg69
g2127
sg62
(lp2139
S':'
asbag55
(g76
g57
NtRp2140
(dp2141
g60
(dp2142
sg69
g2127
sg62
(lp2143
g55
(g56
g57
NtRp2144
(dp2145
g60
(dp2146
g68
I3
ssg69
g2140
sg62
(lp2147
g1177
asbasbasbag55
(g71
g57
NtRp2148
(dp2149
g60
(dp2150
sg69
g1955
sg62
(lp2151
g55
(g76
g57
NtRp2152
(dp2153
g60
(dp2154
g80
g81
ssg69
g2148
sg62
(lp2155
S'QUERY_STRING'
p2156
asbag55
(g76
g57
NtRp2157
(dp2158
g60
(dp2159
g87
g88
ssg69
g2148
sg62
(lp2160
S':'
asbag55
(g76
g57
NtRp2161
(dp2162
g60
(dp2163
sg69
g2148
sg62
(lp2164
g55
(g56
g57
NtRp2165
(dp2166
g60
(dp2167
g68
I3
ssg69
g2161
sg62
(lp2168
S''
asbasbasbag55
(g71
g57
NtRp2169
(dp2170
g60
(dp2171
sg69
g1955
sg62
(lp2172
g55
(g76
g57
NtRp2173
(dp2174
g60
(dp2175
g80
g81
ssg69
g2169
sg62
(lp2176
S'REMOTE_ADDR'
p2177
asbag55
(g76
g57
NtRp2178
(dp2179
g60
(dp2180
g87
g88
ssg69
g2169
sg62
(lp2181
S':'
asbag55
(g76
g57
NtRp2182
(dp2183
g60
(dp2184
sg69
g2169
sg62
(lp2185
g55
(g56
g57
NtRp2186
(dp2187
g60
(dp2188
g68
I3
ssg69
g2182
sg62
(lp2189
g188
asbasbasbag55
(g71
g57
NtRp2190
(dp2191
g60
(dp2192
sg69
g1955
sg62
(lp2193
g55
(g76
g57
NtRp2194
(dp2195
g60
(dp2196
g80
g81
ssg69
g2190
sg62
(lp2197
S'REMOTE_PORT'
p2198
asbag55
(g76
g57
NtRp2199
(dp2200
g60
(dp2201
g87
g88
ssg69
g2190
sg62
(lp2202
S':'
asbag55
(g76
g57
NtRp2203
(dp2204
g60
(dp2205
sg69
g2190
sg62
(lp2206
g55
(g56
g57
NtRp2207
(dp2208
g60
(dp2209
g68
I3
ssg69
g2203
sg62
(lp2210
g1241
asbasbasbag55
(g71
g57
NtRp2211
(dp2212
g60
(dp2213
sg69
g1955
sg62
(lp2214
g55
(g76
g57
NtRp2215
(dp2216
g60
(dp2217
g80
g81
ssg69
g2211
sg62
(lp2218
S'REQUEST_METHOD'
p2219
asbag55
(g76
g57
NtRp2220
(dp2221
g60
(dp2222
g87
g88
ssg69
g2211
sg62
(lp2223
S':'
asbag55
(g76
g57
NtRp2224
(dp2225
g60
(dp2226
sg69
g2211
sg62
(lp2227
g55
(g56
g57
NtRp2228
(dp2229
g60
(dp2230
g68
I3
ssg69
g2224
sg62
(lp2231
g1263
asbasbasbag55
(g71
g57
NtRp2232
(dp2233
g60
(dp2234
sg69
g1955
sg62
(lp2235
g55
(g76
g57
NtRp2236
(dp2237
g60
(dp2238
g80
g81
ssg69
g2232
sg62
(lp2239
S'REQUEST_URI'
p2240
asbag55
(g76
g57
NtRp2241
(dp2242
g60
(dp2243
g87
g88
ssg69
g2232
sg62
(lp2244
S':'
asbag55
(g76
g57
NtRp2245
(dp2246
g60
(dp2247
sg69
g2232
sg62
(lp2248
g55
(g56
g57
NtRp2249
(dp2250
g60
(dp2251
g68
I3
ssg69
g2245
sg62
(lp2252
g1177
asbasbasbag55
(g71
g57
NtRp2253
(dp2254
g60
(dp2255
sg69
g1955
sg62
(lp2256
g55
(g76
g57
NtRp2257
(dp2258
g60
(dp2259
g80
g81
ssg69
g2253
sg62
(lp2260
S'SCRIPT_NAME'
p2261
asbag55
(g76
g57
NtRp2262
(dp2263
g60
(dp2264
g87
g88
ssg69
g2253
sg62
(lp2265
S':'
asbag55
(g76
g57
NtRp2266
(dp2267
g60
(dp2268
sg69
g2253
sg62
(lp2269
g55
(g56
g57
NtRp2270
(dp2271
g60
(dp2272
g68
I3
ssg69
g2266
sg62
(lp2273
S''
asbasbasbag55
(g71
g57
NtRp2274
(dp2275
g60
(dp2276
sg69
g1955
sg62
(lp2277
g55
(g76
g57
NtRp2278
(dp2279
g60
(dp2280
g80
g81
ssg69
g2274
sg62
(lp2281
S'SERVER_NAME'
p2282
asbag55
(g76
g57
NtRp2283
(dp2284
g60
(dp2285
g87
g88
ssg69
g2274
sg62
(lp2286
S':'
asbag55
(g76
g57
NtRp2287
(dp2288
g60
(dp2289
sg69
g2274
sg62
(lp2290
g55
(g56
g57
NtRp2291
(dp2292
g60
(dp2293
g68
I3
ssg69
g2287
sg62
(lp2294
g1327
asbasbasbag55
(g71
g57
NtRp2295
(dp2296
g60
(dp2297
sg69
g1955
sg62
(lp2298
g55
(g76
g57
NtRp2299
(dp2300
g60
(dp2301
g80
g81
ssg69
g2295
sg62
(lp2302
S'SERVER_PORT'
p2303
asbag55
(g76
g57
NtRp2304
(dp2305
g60
(dp2306
g87
g88
ssg69
g2295
sg62
(lp2307
S':'
asbag55
(g76
g57
NtRp2308
(dp2309
g60
(dp2310
sg69
g2295
sg62
(lp2311
g55
(g56
g57
NtRp2312
(dp2313
g60
(dp2314
g68
I3
ssg69
g2308
sg62
(lp2315
g1349
asbasbasbag55
(g71
g57
NtRp2316
(dp2317
g60
(dp2318
sg69
g1955
sg62
(lp2319
g55
(g76
g57
NtRp2320
(dp2321
g60
(dp2322
g80
g81
ssg69
g2316
sg62
(lp2323
S'SERVER_PROTOCOL'
p2324
asbag55
(g76
g57
NtRp2325
(dp2326
g60
(dp2327
g87
g88
ssg69
g2316
sg62
(lp2328
S':'
asbag55
(g76
g57
NtRp2329
(dp2330
g60
(dp2331
sg69
g2316
sg62
(lp2332
g55
(g56
g57
NtRp2333
(dp2334
g60
(dp2335
g68
I3
ssg69
g2329
sg62
(lp2336
g1371
asbasbasbag55
(g71
g57
NtRp2337
(dp2338
g60
(dp2339
sg69
g1955
sg62
(lp2340
g55
(g76
g57
NtRp2341
(dp2342
g60
(dp2343
g80
g81
ssg69
g2337
sg62
(lp2344
S'SERVER_SOFTWARE'
p2345
asbag55
(g76
g57
NtRp2346
(dp2347
g60
(dp2348
g87
g88
ssg69
g2337
sg62
(lp2349
S':'
asbag55
(g76
g57
NtRp2350
(dp2351
g60
(dp2352
sg69
g2337
sg62
(lp2353
g55
(g56
g57
NtRp2354
(dp2355
g60
(dp2356
g68
I3
ssg69
g2350
sg62
(lp2357
g1393
asbasbasbag55
(g71
g57
NtRp2358
(dp2359
g60
(dp2360
sg69
g1955
sg62
(lp2361
g55
(g76
g57
NtRp2362
(dp2363
g60
(dp2364
g80
g81
ssg69
g2358
sg62
(lp2365
S'WEB2PY_ORIGINAL_URI'
p2366
asbag55
(g76
g57
NtRp2367
(dp2368
g60
(dp2369
g87
g88
ssg69
g2358
sg62
(lp2370
S':'
asbag55
(g76
g57
NtRp2371
(dp2372
g60
(dp2373
sg69
g2358
sg62
(lp2374
g55
(g56
g57
NtRp2375
(dp2376
g60
(dp2377
g68
I3
ssg69
g2371
sg62
(lp2378
g1177
asbasbasbag55
(g71
g57
NtRp2379
(dp2380
g60
(dp2381
sg69
g1955
sg62
(lp2382
g55
(g76
g57
NtRp2383
(dp2384
g60
(dp2385
g80
g81
ssg69
g2379
sg62
(lp2386
S'wsgi.errors'
p2387
asbag55
(g76
g57
NtRp2388
(dp2389
g60
(dp2390
g87
g88
ssg69
g2379
sg62
(lp2391
S':'
asbag55
(g76
g57
NtRp2392
(dp2393
g60
(dp2394
sg69
g2379
sg62
(lp2395
g55
(g56
g57
NtRp2396
(dp2397
g60
(dp2398
g68
I3
ssg69
g2392
sg62
(lp2399
S"<open file '<stderr>', mode 'w' at 0xb77b80d0>"
p2400
asbasbasbag55
(g71
g57
NtRp2401
(dp2402
g60
(dp2403
sg69
g1955
sg62
(lp2404
g55
(g76
g57
NtRp2405
(dp2406
g60
(dp2407
g80
g81
ssg69
g2401
sg62
(lp2408
S'wsgi.file_wrapper'
p2409
asbag55
(g76
g57
NtRp2410
(dp2411
g60
(dp2412
g87
g88
ssg69
g2401
sg62
(lp2413
S':'
asbag55
(g76
g57
NtRp2414
(dp2415
g60
(dp2416
sg69
g2401
sg62
(lp2417
g55
(g56
g57
NtRp2418
(dp2419
g60
(dp2420
g68
I3
ssg69
g2414
sg62
(lp2421
S'<class gluon.rocket.FileWrapper at 0x9d865cc>'
p2422
asbasbasbag55
(g71
g57
NtRp2423
(dp2424
g60
(dp2425
sg69
g1955
sg62
(lp2426
g55
(g76
g57
NtRp2427
(dp2428
g60
(dp2429
g80
g81
ssg69
g2423
sg62
(lp2430
S'wsgi.input'
p2431
asbag55
(g76
g57
NtRp2432
(dp2433
g60
(dp2434
g87
g88
ssg69
g2423
sg62
(lp2435
S':'
asbag55
(g76
g57
NtRp2436
(dp2437
g60
(dp2438
sg69
g2423
sg62
(lp2439
g55
(g56
g57
NtRp2440
(dp2441
g60
(dp2442
g68
I3
ssg69
g2436
sg62
(lp2443
S'<cStringIO.StringO object at 0x9f2c600>'
p2444
asbasbasbag55
(g71
g57
NtRp2445
(dp2446
g60
(dp2447
sg69
g1955
sg62
(lp2448
g55
(g76
g57
NtRp2449
(dp2450
g60
(dp2451
g80
g81
ssg69
g2445
sg62
(lp2452
S'wsgi.multiprocess'
p2453
asbag55
(g76
g57
NtRp2454
(dp2455
g60
(dp2456
g87
g88
ssg69
g2445
sg62
(lp2457
S':'
asbag55
(g76
g57
NtRp2458
(dp2459
g60
(dp2460
sg69
g2445
sg62
(lp2461
g55
(g56
g57
NtRp2462
(dp2463
g60
(dp2464
g68
I3
ssg69
g2458
sg62
(lp2465
g98
asbasbasbag55
(g71
g57
NtRp2466
(dp2467
g60
(dp2468
sg69
g1955
sg62
(lp2469
g55
(g76
g57
NtRp2470
(dp2471
g60
(dp2472
g80
g81
ssg69
g2466
sg62
(lp2473
S'wsgi.multithread'
p2474
asbag55
(g76
g57
NtRp2475
(dp2476
g60
(dp2477
g87
g88
ssg69
g2466
sg62
(lp2478
S':'
asbag55
(g76
g57
NtRp2479
(dp2480
g60
(dp2481
sg69
g2466
sg62
(lp2482
g55
(g56
g57
NtRp2483
(dp2484
g60
(dp2485
g68
I3
ssg69
g2479
sg62
(lp2486
g1588
asbasbasbag55
(g71
g57
NtRp2487
(dp2488
g60
(dp2489
sg69
g1955
sg62
(lp2490
g55
(g76
g57
NtRp2491
(dp2492
g60
(dp2493
g80
g81
ssg69
g2487
sg62
(lp2494
S'wsgi.run_once'
p2495
asbag55
(g76
g57
NtRp2496
(dp2497
g60
(dp2498
g87
g88
ssg69
g2487
sg62
(lp2499
S':'
asbag55
(g76
g57
NtRp2500
(dp2501
g60
(dp2502
sg69
g2487
sg62
(lp2503
g55
(g56
g57
NtRp2504
(dp2505
g60
(dp2506
g68
I3
ssg69
g2500
sg62
(lp2507
g98
asbasbasbag55
(g71
g57
NtRp2508
(dp2509
g60
(dp2510
sg69
g1955
sg62
(lp2511
g55
(g76
g57
NtRp2512
(dp2513
g60
(dp2514
g80
g81
ssg69
g2508
sg62
(lp2515
S'wsgi.url_scheme'
p2516
asbag55
(g76
g57
NtRp2517
(dp2518
g60
(dp2519
g87
g88
ssg69
g2508
sg62
(lp2520
S':'
asbag55
(g76
g57
NtRp2521
(dp2522
g60
(dp2523
sg69
g2508
sg62
(lp2524
g55
(g56
g57
NtRp2525
(dp2526
g60
(dp2527
g68
I3
ssg69
g2521
sg62
(lp2528
g1631
asbasbasbag55
(g71
g57
NtRp2529
(dp2530
g60
(dp2531
sg69
g1955
sg62
(lp2532
g55
(g76
g57
NtRp2533
(dp2534
g60
(dp2535
g80
g81
ssg69
g2529
sg62
(lp2536
S'wsgi.version'
p2537
asbag55
(g76
g57
NtRp2538
(dp2539
g60
(dp2540
g87
g88
ssg69
g2529
sg62
(lp2541
S':'
asbag55
(g76
g57
NtRp2542
(dp2543
g60
(dp2544
sg69
g2529
sg62
(lp2545
g55
(g56
g57
NtRp2546
(dp2547
g60
(dp2548
g68
I3
ssg69
g2542
sg62
(lp2549
S'1'
asbasbasbasbasbasbasbasbasbasbasbasbasbsS'frames'
p2550
(lp2551
(dp2552
S'file'
p2553
S'/home/raygomez/web2py/gluon/main.py'
p2554
sS'dump'
p2555
(dp2556
S'global serve_controller'
p2557
S'<function serve_controller>'
p2558
sS'session'
p2559
S"<Storage {'_Session__hash': '\\xc8[\\xd5\\xc1#\\xd8e\\x10\\xe3\\x06\\x0ba\\xddT\\x92m'}>"
p2560
sS'request'
p2561
S"<Storage {'function': 'index', 'body': <cStringI....09-38-25.f1a9bf1f-0a89-4efe-8e97-331623f8ede4'}>"
p2562
sS'response'
p2563
S"<Storage {'status': 200, 'body': <cStringIO.Stri...der', 'files': [], 'view': 'default/index.html'}>"
p2564
ssS'lnum'
p2565
I466
sS'lines'
p2566
(dp2567
I461
S''
sI462
S'                # ##################################################'
p2568
sI463
S'                # run controller'
p2569
sI464
S'                # ##################################################'
p2570
sI465
S''
sI466
S'                serve_controller(request, response, session)'
p2571
sI467
S''
sI468
S'            except HTTP, http_response:'
p2572
sI469
S'                if static_file:'
p2573
sI470
S'                    return http_response.to(responder)'
p2574
ssS'call'
p2575
S"(environ={'HTTP_ACCEPT': 'application/xml,application/xhtml+xml,text/html;q=0.9,text/plain;q=0.8,image/png,*/*;q=0.5', 'HTTP_ACCEPT_CHARSET': 'ISO-8859-1,utf-8;q=0.7,*;q=0.3', 'HTTP_ACCEPT_ENCODING': 'gzip,deflate,sdch', 'HTTP_ACCEPT_LANGUAGE': 'en,es;q=0.8,en-US;q=0.6', 'HTTP_CONNECTION': 'keep-alive', 'HTTP_COOKIE': 'session_id_msghandler=127.0.0.1-019d8e16-9c38-41...in=127.0.0.1-385eb62a-7ea8-4559-87a5-b70e60a75202', 'HTTP_HOST': 'localhost:8000', 'HTTP_USER_AGENT': 'Mozilla/5.0 (X11; Linux i686) AppleWebKit/534.24...mium/11.0.696.68 Chrome/11.0.696.68 Safari/534.24', 'PATH_INFO': '/ge_finder/default/index', 'QUERY_STRING': '', ...}, responder=<function responder2>)"
p2576
sS'func'
p2577
S'wsgibase'
p2578
sa(dp2579
g2553
S'/home/raygomez/web2py/gluon/main.py'
p2580
sg2555
(dp2581
S'environment'
p2582
S"{'A': <class 'gluon.html.A'>, 'B': <class 'gluon.html.B'>, 'BEAUTIFY': <class 'gluon.html.BEAUTIFY'>, 'BODY': <class 'gluon.html.BODY'>, 'BR': <class 'gluon.html.BR'>, 'CENTER': <class 'gluon.html.CENTER'>, 'CLEANUP': <class 'gluon.validators.CLEANUP'>, 'CODE': <class 'gluon.html.CODE'>, 'CRYPT': <class 'gluon.validators.CRYPT'>, 'DAL': <class 'gluon.dal.DAL'>, ...}"
p2583
sS'global run_models_in'
p2584
S'<function run_models_in>'
p2585
ssg2565
I199
sg2566
(dp2586
I194
S'    # also, make sure the flash is passed through'
p2587
sI195
S'    # ##################################################'
p2588
sI196
S'    # process models, controller and view (if required)'
p2589
sI197
S'    # ##################################################'
p2590
sI198
S''
sI199
S'    run_models_in(environment)'
p2591
sI200
S'    response._view_environment = copy.copy(environment)'
p2592
sI201
S'    page = run_controller_in(request.controller, request.function, environment)'
p2593
sI202
S'    if isinstance(page, dict):'
p2594
sI203
S'        response._vars = page'
p2595
ssg2575
S"(request=<Storage {'function': 'index', 'body': <cStringI....09-38-25.f1a9bf1f-0a89-4efe-8e97-331623f8ede4'}>, response=<Storage {'status': 200, 'body': <cStringIO.Stri...der', 'files': [], 'view': 'default/index.html'}>, session=<Storage {'_Session__hash': '\\xc8[\\xd5\\xc1#\\xd8e\\x10\\xe3\\x06\\x0ba\\xddT\\x92m'}>)"
p2596
sg2577
S'serve_controller'
p2597
sa(dp2598
g2553
S'/home/raygomez/web2py/gluon/compileapp.py'
p2599
sg2555
(dp2600
S'environment'
p2601
S"{'A': <class 'gluon.html.A'>, 'B': <class 'gluon.html.B'>, 'BEAUTIFY': <class 'gluon.html.BEAUTIFY'>, 'BODY': <class 'gluon.html.BODY'>, 'BR': <class 'gluon.html.BR'>, 'CENTER': <class 'gluon.html.CENTER'>, 'CLEANUP': <class 'gluon.validators.CLEANUP'>, 'CODE': <class 'gluon.html.CODE'>, 'CRYPT': <class 'gluon.validators.CRYPT'>, 'DAL': <class 'gluon.dal.DAL'>, ...}"
p2602
sS'model'
p2603
S"'/home/raygomez/web2py/applications/ge_finder/compiled/models_db.pyc'"
p2604
sS'global restricted'
p2605
S'<function restricted>'
p2606
sS'layer'
p2607
S'undefined'
p2608
sS'global read_pyc'
p2609
S'<function read_pyc>'
p2610
ssg2565
I337
sg2566
(dp2611
I332
S''
sI333
S"    folder = environment['request'].folder"
p2612
sI334
S"    path = os.path.join(folder, 'compiled')"
p2613
sI335
S'    if os.path.exists(path):'
p2614
sI336
S"        for model in listdir(path, '^models_.+\\.pyc$', 0):"
p2615
sI337
S'            restricted(read_pyc(model), environment, layer=model)'
p2616
sI338
S'    else:'
p2617
sI339
S"        models = listdir(os.path.join(folder, 'models'), '^\\w+\\.py$',"
p2618
sI340
S'                         0)'
p2619
sI341
S'        for model in models:'
p2620
ssg2575
S"(environment={'A': <class 'gluon.html.A'>, 'B': <class 'gluon.html.B'>, 'BEAUTIFY': <class 'gluon.html.BEAUTIFY'>, 'BODY': <class 'gluon.html.BODY'>, 'BR': <class 'gluon.html.BR'>, 'CENTER': <class 'gluon.html.CENTER'>, 'CLEANUP': <class 'gluon.validators.CLEANUP'>, 'CODE': <class 'gluon.html.CODE'>, 'CRYPT': <class 'gluon.validators.CRYPT'>, 'DAL': <class 'gluon.dal.DAL'>, ...})"
p2621
sg2577
S'run_models_in'
p2622
sa(dp2623
g2553
S'/home/raygomez/web2py/gluon/compileapp.py'
p2624
sg2555
(dp2625
S'builtinSystemError'
p2626
S"<type 'exceptions.SystemError'>"
p2627
ssg2565
I262
sg2566
(dp2628
I257
S'    """'
p2629
sI258
S"    fp = open(filename, 'rb')"
p2630
sI259
S'    data = fp.read()'
p2631
sI260
S'    fp.close()'
p2632
sI261
S'    if not is_gae and data[:4] != imp.get_magic():'
p2633
sI262
S"        raise SystemError, 'compiled code is incompatible'"
p2634
sI263
S'    return marshal.loads(data[8:])'
p2635
sI264
S''
sI265
S''
sI266
S'def compile_views(folder):'
p2636
ssg2575
S"(filename='/home/raygomez/web2py/applications/ge_finder/compiled/models_db.pyc')"
p2637
sg2577
S'read_pyc'
p2638
sasS'pyver'
p2639
S'Python 2.7.1+: /usr/bin/python'
p2640
sS'session'
p2641
g55
(g56
g57
NtRp2642
(dp2643
g60
(dp2644
sg62
(lp2645
g55
(g64
g57
NtRp2646
(dp2647
g60
(dp2648
g68
I5
ssg69
Nsg62
(lp2649
sbasbsS'etype'
p2650
S"<type 'exceptions.SystemError'>"
p2651
sS'date'
p2652
S'Mon May 23 09:38:25 2011'
p2653
sS'response'
p2654
g55
(g56
g57
NtRp2655
(dp2656
g60
(dp2657
sg62
(lp2658
g55
(g64
g57
NtRp2659
(dp2660
g60
(dp2661
g68
I5
ssg69
Nsg62
(lp2662
g55
(g71
g57
NtRp2663
(dp2664
g60
(dp2665
sg69
g2659
sg62
(lp2666
g55
(g76
g57
NtRp2667
(dp2668
g60
(dp2669
g80
g81
ssg69
g2663
sg62
(lp2670
g153
asbag55
(g76
g57
NtRp2671
(dp2672
g60
(dp2673
g87
g88
ssg69
g2663
sg62
(lp2674
S':'
asbag55
(g76
g57
NtRp2675
(dp2676
g60
(dp2677
sg69
g2663
sg62
(lp2678
g55
(g56
g57
NtRp2679
(dp2680
g60
(dp2681
g68
I5
ssg69
g2675
sg62
(lp2682
S'<cStringIO.StringO object at 0xa08e3a0>'
p2683
asbasbasbag55
(g71
g57
NtRp2684
(dp2685
g60
(dp2686
sg69
g2659
sg62
(lp2687
g55
(g76
g57
NtRp2688
(dp2689
g60
(dp2690
g80
g81
ssg69
g2684
sg62
(lp2691
g219
asbag55
(g76
g57
NtRp2692
(dp2693
g60
(dp2694
g87
g88
ssg69
g2684
sg62
(lp2695
S':'
asbag55
(g76
g57
NtRp2696
(dp2697
g60
(dp2698
sg69
g2684
sg62
(lp2699
g55
(g56
g57
NtRp2700
(dp2701
g60
(dp2702
g68
I5
ssg69
g2696
sg62
(lp2703
g55
(g64
g57
NtRp2704
(dp2705
g60
(dp2706
g68
I4
ssg69
Nsg62
(lp2707
g55
(g71
g57
NtRp2708
(dp2709
g60
(dp2710
sg69
g2704
sg62
(lp2711
g55
(g76
g57
NtRp2712
(dp2713
g60
(dp2714
g80
g81
ssg69
g2708
sg62
(lp2715
S'session_id_ge_finder'
p2716
asbag55
(g76
g57
NtRp2717
(dp2718
g60
(dp2719
g87
g88
ssg69
g2708
sg62
(lp2720
S':'
asbag55
(g76
g57
NtRp2721
(dp2722
g60
(dp2723
sg69
g2708
sg62
(lp2724
g55
(g56
g57
NtRp2725
(dp2726
g60
(dp2727
g68
I4
ssg69
g2721
sg62
(lp2728
g55
(g64
g57
NtRp2729
(dp2730
g60
(dp2731
g68
I3
ssg69
Nsg62
(lp2732
g55
(g71
g57
NtRp2733
(dp2734
g60
(dp2735
sg69
g2729
sg62
(lp2736
g55
(g76
g57
NtRp2737
(dp2738
g60
(dp2739
g80
g81
ssg69
g2733
sg62
(lp2740
g269
asbag55
(g76
g57
NtRp2741
(dp2742
g60
(dp2743
g87
g88
ssg69
g2733
sg62
(lp2744
S':'
asbag55
(g76
g57
NtRp2745
(dp2746
g60
(dp2747
sg69
g2733
sg62
(lp2748
g55
(g56
g57
NtRp2749
(dp2750
g60
(dp2751
g68
I3
ssg69
g2745
sg62
(lp2752
S''
asbasbasbag55
(g71
g57
NtRp2753
(dp2754
g60
(dp2755
sg69
g2729
sg62
(lp2756
g55
(g76
g57
NtRp2757
(dp2758
g60
(dp2759
g80
g81
ssg69
g2753
sg62
(lp2760
g290
asbag55
(g76
g57
NtRp2761
(dp2762
g60
(dp2763
g87
g88
ssg69
g2753
sg62
(lp2764
S':'
asbag55
(g76
g57
NtRp2765
(dp2766
g60
(dp2767
sg69
g2753
sg62
(lp2768
g55
(g56
g57
NtRp2769
(dp2770
g60
(dp2771
g68
I3
ssg69
g2765
sg62
(lp2772
S''
asbasbasbag55
(g71
g57
NtRp2773
(dp2774
g60
(dp2775
sg69
g2729
sg62
(lp2776
g55
(g76
g57
NtRp2777
(dp2778
g60
(dp2779
g80
g81
ssg69
g2773
sg62
(lp2780
g311
asbag55
(g76
g57
NtRp2781
(dp2782
g60
(dp2783
g87
g88
ssg69
g2773
sg62
(lp2784
S':'
asbag55
(g76
g57
NtRp2785
(dp2786
g60
(dp2787
sg69
g2773
sg62
(lp2788
g55
(g56
g57
NtRp2789
(dp2790
g60
(dp2791
g68
I3
ssg69
g2785
sg62
(lp2792
S''
asbasbasbag55
(g71
g57
NtRp2793
(dp2794
g60
(dp2795
sg69
g2729
sg62
(lp2796
g55
(g76
g57
NtRp2797
(dp2798
g60
(dp2799
g80
g81
ssg69
g2793
sg62
(lp2800
g332
asbag55
(g76
g57
NtRp2801
(dp2802
g60
(dp2803
g87
g88
ssg69
g2793
sg62
(lp2804
S':'
asbag55
(g76
g57
NtRp2805
(dp2806
g60
(dp2807
sg69
g2793
sg62
(lp2808
g55
(g56
g57
NtRp2809
(dp2810
g60
(dp2811
g68
I3
ssg69
g2805
sg62
(lp2812
S''
asbasbasbag55
(g71
g57
NtRp2813
(dp2814
g60
(dp2815
sg69
g2729
sg62
(lp2816
g55
(g76
g57
NtRp2817
(dp2818
g60
(dp2819
g80
g81
ssg69
g2813
sg62
(lp2820
g353
asbag55
(g76
g57
NtRp2821
(dp2822
g60
(dp2823
g87
g88
ssg69
g2813
sg62
(lp2824
S':'
asbag55
(g76
g57
NtRp2825
(dp2826
g60
(dp2827
sg69
g2813
sg62
(lp2828
g55
(g56
g57
NtRp2829
(dp2830
g60
(dp2831
g68
I3
ssg69
g2825
sg62
(lp2832
S''
asbasbasbag55
(g71
g57
NtRp2833
(dp2834
g60
(dp2835
sg69
g2729
sg62
(lp2836
g55
(g76
g57
NtRp2837
(dp2838
g60
(dp2839
g80
g81
ssg69
g2833
sg62
(lp2840
g374
asbag55
(g76
g57
NtRp2841
(dp2842
g60
(dp2843
g87
g88
ssg69
g2833
sg62
(lp2844
S':'
asbag55
(g76
g57
NtRp2845
(dp2846
g60
(dp2847
sg69
g2833
sg62
(lp2848
g55
(g56
g57
NtRp2849
(dp2850
g60
(dp2851
g68
I3
ssg69
g2845
sg62
(lp2852
S'/'
asbasbasbag55
(g71
g57
NtRp2853
(dp2854
g60
(dp2855
sg69
g2729
sg62
(lp2856
g55
(g76
g57
NtRp2857
(dp2858
g60
(dp2859
g80
g81
ssg69
g2853
sg62
(lp2860
g395
asbag55
(g76
g57
NtRp2861
(dp2862
g60
(dp2863
g87
g88
ssg69
g2853
sg62
(lp2864
S':'
asbag55
(g76
g57
NtRp2865
(dp2866
g60
(dp2867
sg69
g2853
sg62
(lp2868
g55
(g56
g57
NtRp2869
(dp2870
g60
(dp2871
g68
I3
ssg69
g2865
sg62
(lp2872
S''
asbasbasbag55
(g71
g57
NtRp2873
(dp2874
g60
(dp2875
sg69
g2729
sg62
(lp2876
g55
(g76
g57
NtRp2877
(dp2878
g60
(dp2879
g80
g81
ssg69
g2873
sg62
(lp2880
g416
asbag55
(g76
g57
NtRp2881
(dp2882
g60
(dp2883
g87
g88
ssg69
g2873
sg62
(lp2884
S':'
asbag55
(g76
g57
NtRp2885
(dp2886
g60
(dp2887
sg69
g2873
sg62
(lp2888
g55
(g56
g57
NtRp2889
(dp2890
g60
(dp2891
g68
I3
ssg69
g2885
sg62
(lp2892
S''
asbasbasbasbasbasbasbasbasbasbasbag55
(g71
g57
NtRp2893
(dp2894
g60
(dp2895
sg69
g2659
sg62
(lp2896
g55
(g76
g57
NtRp2897
(dp2898
g60
(dp2899
g80
g81
ssg69
g2893
sg62
(lp2900
S'files'
p2901
asbag55
(g76
g57
NtRp2902
(dp2903
g60
(dp2904
g87
g88
ssg69
g2893
sg62
(lp2905
S':'
asbag55
(g76
g57
NtRp2906
(dp2907
g60
(dp2908
sg69
g2893
sg62
(lp2909
g55
(g56
g57
NtRp2910
(dp2911
g60
(dp2912
g68
I5
ssg69
g2906
sg62
(lp2913
g55
(g64
g57
NtRp2914
(dp2915
g60
(dp2916
g68
I4
ssg69
Nsg62
(lp2917
sbasbasbasbag55
(g71
g57
NtRp2918
(dp2919
g60
(dp2920
sg69
g2659
sg62
(lp2921
g55
(g76
g57
NtRp2922
(dp2923
g60
(dp2924
g80
g81
ssg69
g2918
sg62
(lp2925
S'flash'
p2926
asbag55
(g76
g57
NtRp2927
(dp2928
g60
(dp2929
g87
g88
ssg69
g2918
sg62
(lp2930
S':'
asbag55
(g76
g57
NtRp2931
(dp2932
g60
(dp2933
sg69
g2918
sg62
(lp2934
g55
(g56
g57
NtRp2935
(dp2936
g60
(dp2937
g68
I5
ssg69
g2931
sg62
(lp2938
S''
asbasbasbag55
(g71
g57
NtRp2939
(dp2940
g60
(dp2941
sg69
g2659
sg62
(lp2942
g55
(g76
g57
NtRp2943
(dp2944
g60
(dp2945
g80
g81
ssg69
g2939
sg62
(lp2946
S'headers'
p2947
asbag55
(g76
g57
NtRp2948
(dp2949
g60
(dp2950
g87
g88
ssg69
g2939
sg62
(lp2951
S':'
asbag55
(g76
g57
NtRp2952
(dp2953
g60
(dp2954
sg69
g2939
sg62
(lp2955
g55
(g56
g57
NtRp2956
(dp2957
g60
(dp2958
g68
I5
ssg69
g2952
sg62
(lp2959
g55
(g64
g57
NtRp2960
(dp2961
g60
(dp2962
g68
I4
ssg69
Nsg62
(lp2963
g55
(g71
g57
NtRp2964
(dp2965
g60
(dp2966
sg69
g2960
sg62
(lp2967
g55
(g76
g57
NtRp2968
(dp2969
g60
(dp2970
g80
g81
ssg69
g2964
sg62
(lp2971
S'Cache-Control'
p2972
asbag55
(g76
g57
NtRp2973
(dp2974
g60
(dp2975
g87
g88
ssg69
g2964
sg62
(lp2976
S':'
asbag55
(g76
g57
NtRp2977
(dp2978
g60
(dp2979
sg69
g2964
sg62
(lp2980
g55
(g56
g57
NtRp2981
(dp2982
g60
(dp2983
g68
I4
ssg69
g2977
sg62
(lp2984
S'no-store, no-cache, must-revalidate, post-check=0, pre-check=0'
p2985
asbasbasbag55
(g71
g57
NtRp2986
(dp2987
g60
(dp2988
sg69
g2960
sg62
(lp2989
g55
(g76
g57
NtRp2990
(dp2991
g60
(dp2992
g80
g81
ssg69
g2986
sg62
(lp2993
S'Content-Type'
p2994
asbag55
(g76
g57
NtRp2995
(dp2996
g60
(dp2997
g87
g88
ssg69
g2986
sg62
(lp2998
S':'
asbag55
(g76
g57
NtRp2999
(dp3000
g60
(dp3001
sg69
g2986
sg62
(lp3002
g55
(g56
g57
NtRp3003
(dp3004
g60
(dp3005
g68
I4
ssg69
g2999
sg62
(lp3006
S'text/html; charset=utf-8'
p3007
asbasbasbag55
(g71
g57
NtRp3008
(dp3009
g60
(dp3010
sg69
g2960
sg62
(lp3011
g55
(g76
g57
NtRp3012
(dp3013
g60
(dp3014
g80
g81
ssg69
g3008
sg62
(lp3015
S'Expires'
p3016
asbag55
(g76
g57
NtRp3017
(dp3018
g60
(dp3019
g87
g88
ssg69
g3008
sg62
(lp3020
S':'
asbag55
(g76
g57
NtRp3021
(dp3022
g60
(dp3023
sg69
g3008
sg62
(lp3024
g55
(g56
g57
NtRp3025
(dp3026
g60
(dp3027
g68
I4
ssg69
g3021
sg62
(lp3028
S'Mon, 23 May 2011 01:38:25 GMT'
p3029
asbasbasbag55
(g71
g57
NtRp3030
(dp3031
g60
(dp3032
sg69
g2960
sg62
(lp3033
g55
(g76
g57
NtRp3034
(dp3035
g60
(dp3036
g80
g81
ssg69
g3030
sg62
(lp3037
S'Pragma'
p3038
asbag55
(g76
g57
NtRp3039
(dp3040
g60
(dp3041
g87
g88
ssg69
g3030
sg62
(lp3042
S':'
asbag55
(g76
g57
NtRp3043
(dp3044
g60
(dp3045
sg69
g3030
sg62
(lp3046
g55
(g56
g57
NtRp3047
(dp3048
g60
(dp3049
g68
I4
ssg69
g3043
sg62
(lp3050
S'no-cache'
p3051
asbasbasbasbasbasbasbag55
(g71
g57
NtRp3052
(dp3053
g60
(dp3054
sg69
g2659
sg62
(lp3055
g55
(g76
g57
NtRp3056
(dp3057
g60
(dp3058
g80
g81
ssg69
g3052
sg62
(lp3059
S'menu'
p3060
asbag55
(g76
g57
NtRp3061
(dp3062
g60
(dp3063
g87
g88
ssg69
g3052
sg62
(lp3064
S':'
asbag55
(g76
g57
NtRp3065
(dp3066
g60
(dp3067
sg69
g3052
sg62
(lp3068
g55
(g56
g57
NtRp3069
(dp3070
g60
(dp3071
g68
I5
ssg69
g3065
sg62
(lp3072
g55
(g64
g57
NtRp3073
(dp3074
g60
(dp3075
g68
I4
ssg69
Nsg62
(lp3076
sbasbasbasbag55
(g71
g57
NtRp3077
(dp3078
g60
(dp3079
sg69
g2659
sg62
(lp3080
g55
(g76
g57
NtRp3081
(dp3082
g60
(dp3083
g80
g81
ssg69
g3077
sg62
(lp3084
S'meta'
p3085
asbag55
(g76
g57
NtRp3086
(dp3087
g60
(dp3088
g87
g88
ssg69
g3077
sg62
(lp3089
S':'
asbag55
(g76
g57
NtRp3090
(dp3091
g60
(dp3092
sg69
g3077
sg62
(lp3093
g55
(g56
g57
NtRp3094
(dp3095
g60
(dp3096
g68
I5
ssg69
g3090
sg62
(lp3097
g55
(g64
g57
NtRp3098
(dp3099
g60
(dp3100
g68
I4
ssg69
Nsg62
(lp3101
sbasbasbasbag55
(g71
g57
NtRp3102
(dp3103
g60
(dp3104
sg69
g2659
sg62
(lp3105
g55
(g76
g57
NtRp3106
(dp3107
g60
(dp3108
g80
g81
ssg69
g3102
sg62
(lp3109
S'postprocessing'
p3110
asbag55
(g76
g57
NtRp3111
(dp3112
g60
(dp3113
g87
g88
ssg69
g3102
sg62
(lp3114
S':'
asbag55
(g76
g57
NtRp3115
(dp3116
g60
(dp3117
sg69
g3102
sg62
(lp3118
g55
(g56
g57
NtRp3119
(dp3120
g60
(dp3121
g68
I5
ssg69
g3115
sg62
(lp3122
g55
(g64
g57
NtRp3123
(dp3124
g60
(dp3125
g68
I4
ssg69
Nsg62
(lp3126
sbasbasbasbag55
(g71
g57
NtRp3127
(dp3128
g60
(dp3129
sg69
g2659
sg62
(lp3130
g55
(g76
g57
NtRp3131
(dp3132
g60
(dp3133
g80
g81
ssg69
g3127
sg62
(lp3134
S'session_filename'
p3135
asbag55
(g76
g57
NtRp3136
(dp3137
g60
(dp3138
g87
g88
ssg69
g3127
sg62
(lp3139
S':'
asbag55
(g76
g57
NtRp3140
(dp3141
g60
(dp3142
sg69
g3127
sg62
(lp3143
g55
(g56
g57
NtRp3144
(dp3145
g60
(dp3146
g68
I5
ssg69
g3140
sg62
(lp3147
S'/home/raygomez/web2py/applications/ge_finder/sessions/127.0.0.1-2501e6e7-c993-42e9-8a61-bf3c6c26ea64'
p3148
asbasbasbag55
(g71
g57
NtRp3149
(dp3150
g60
(dp3151
sg69
g2659
sg62
(lp3152
g55
(g76
g57
NtRp3153
(dp3154
g60
(dp3155
g80
g81
ssg69
g3149
sg62
(lp3156
S'session_id'
p3157
asbag55
(g76
g57
NtRp3158
(dp3159
g60
(dp3160
g87
g88
ssg69
g3149
sg62
(lp3161
S':'
asbag55
(g76
g57
NtRp3162
(dp3163
g60
(dp3164
sg69
g3149
sg62
(lp3165
g55
(g56
g57
NtRp3166
(dp3167
g60
(dp3168
g68
I5
ssg69
g3162
sg62
(lp3169
S'127.0.0.1-2501e6e7-c993-42e9-8a61-bf3c6c26ea64'
p3170
asbasbasbag55
(g71
g57
NtRp3171
(dp3172
g60
(dp3173
sg69
g2659
sg62
(lp3174
g55
(g76
g57
NtRp3175
(dp3176
g60
(dp3177
g80
g81
ssg69
g3171
sg62
(lp3178
S'session_id_name'
p3179
asbag55
(g76
g57
NtRp3180
(dp3181
g60
(dp3182
g87
g88
ssg69
g3171
sg62
(lp3183
S':'
asbag55
(g76
g57
NtRp3184
(dp3185
g60
(dp3186
sg69
g3171
sg62
(lp3187
g55
(g56
g57
NtRp3188
(dp3189
g60
(dp3190
g68
I5
ssg69
g3184
sg62
(lp3191
g2716
asbasbasbag55
(g71
g57
NtRp3192
(dp3193
g60
(dp3194
sg69
g2659
sg62
(lp3195
g55
(g76
g57
NtRp3196
(dp3197
g60
(dp3198
g80
g81
ssg69
g3192
sg62
(lp3199
S'session_new'
p3200
asbag55
(g76
g57
NtRp3201
(dp3202
g60
(dp3203
g87
g88
ssg69
g3192
sg62
(lp3204
S':'
asbag55
(g76
g57
NtRp3205
(dp3206
g60
(dp3207
sg69
g3192
sg62
(lp3208
g55
(g56
g57
NtRp3209
(dp3210
g60
(dp3211
g68
I5
ssg69
g3205
sg62
(lp3212
g1588
asbasbasbag55
(g71
g57
NtRp3213
(dp3214
g60
(dp3215
sg69
g2659
sg62
(lp3216
g55
(g76
g57
NtRp3217
(dp3218
g60
(dp3219
g80
g81
ssg69
g3213
sg62
(lp3220
S'status'
p3221
asbag55
(g76
g57
NtRp3222
(dp3223
g60
(dp3224
g87
g88
ssg69
g3213
sg62
(lp3225
S':'
asbag55
(g76
g57
NtRp3226
(dp3227
g60
(dp3228
sg69
g3213
sg62
(lp3229
g55
(g56
g57
NtRp3230
(dp3231
g60
(dp3232
g68
I5
ssg69
g3226
sg62
(lp3233
S'200'
p3234
asbasbasbag55
(g71
g57
NtRp3235
(dp3236
g60
(dp3237
sg69
g2659
sg62
(lp3238
g55
(g76
g57
NtRp3239
(dp3240
g60
(dp3241
g80
g81
ssg69
g3235
sg62
(lp3242
g1870
asbag55
(g76
g57
NtRp3243
(dp3244
g60
(dp3245
g87
g88
ssg69
g3235
sg62
(lp3246
S':'
asbag55
(g76
g57
NtRp3247
(dp3248
g60
(dp3249
sg69
g3235
sg62
(lp3250
g55
(g56
g57
NtRp3251
(dp3252
g60
(dp3253
g68
I5
ssg69
g3247
sg62
(lp3254
g1883
asbasbasbag55
(g71
g57
NtRp3255
(dp3256
g60
(dp3257
sg69
g2659
sg62
(lp3258
g55
(g76
g57
NtRp3259
(dp3260
g60
(dp3261
g80
g81
ssg69
g3255
sg62
(lp3262
S'view'
p3263
asbag55
(g76
g57
NtRp3264
(dp3265
g60
(dp3266
g87
g88
ssg69
g3255
sg62
(lp3267
S':'
asbag55
(g76
g57
NtRp3268
(dp3269
g60
(dp3270
sg69
g3255
sg62
(lp3271
g55
(g56
g57
NtRp3272
(dp3273
g60
(dp3274
g68
I5
ssg69
g3268
sg62
(lp3275
S'default/index.html'
p3276
asbasbasbasbasbsS'locals'
p3277
(dp3278
S'fp'
p3279
S"<closed file '/home/raygomez/web2py/applications/ge_finder/compiled/models_db.pyc', mode 'rb'>"
p3280
sS'data'
p3281
S"'\\xd1\\xf2\\r\\n\\xd3\\x88\\xd1Mc\\x00\\x00\\x00\\x00\\x00\\x00\\x00\\x00\\x07\\x00\\x00\\x00@\\x00\\x00\\x00so\\x01\\x00\\x00e\\x00\\x00i\\x01\\x00i\\x02\\x00o&\\x00\\x01e\\x03\\x00d\\x00...\\x00\\x00s*\\x00\\x00\\x00\\r\\x01\\x0c\\x02\\x1a\\x06\\x0c\\x0e\\n\\x01\\t\\x01\\x12\\x01\\x12\\x01\\x0f\\x01\\t\\x02\\x13\\x01\\x0c\\x01\\x0c\\x02\\x0c\\x01\\n\\x01\\x0c\\x01\\x0c\\x01\\x0c\\x010\\x01\\x0c\\x010\\x0c'"
p3282
sS'filename'
p3283
S"'/home/raygomez/web2py/applications/ge_finder/compiled/models_db.pyc'"
p3284
sssS'traceback'
p3285
S'Traceback (most recent call last):\n  File "/home/raygomez/web2py/gluon/main.py", line 466, in wsgibase\n    serve_controller(request, response, session)\n  File "/home/raygomez/web2py/gluon/main.py", line 199, in serve_controller\n    run_models_in(environment)\n  File "/home/raygomez/web2py/gluon/compileapp.py", line 337, in run_models_in\n    restricted(read_pyc(model), environment, layer=model)\n  File "/home/raygomez/web2py/gluon/compileapp.py", line 262, in read_pyc\n    raise SystemError, \'compiled code is incompatible\'\nSystemError: compiled code is incompatible\n'
p3286
s.